; Listing generated by Microsoft (R) Optimizing Compiler Version 19.16.27051.0 

include listing.inc

INCLUDELIB MSVCRTD
INCLUDELIB OLDNAMES

CONST	SEGMENT
$SG204834 DB	'd:\qt\qt5.14.2\5.14.2\msvc2017_64\include\qtcore\qmetaty'
	DB	'pe.h', 00H
	ORG $+3
$SG204835 DB	'qRegisterNormalizedMetaType was called with a not normal'
	DB	'ized type name, please call qRegisterMetaType instead.', 00H
	ORG $+1
$SG204836 DB	'qRegisterNormalizedMetaType', 00H
	ORG $+4
$SG196755 DB	'd:\qt\qt5.14.2\5.14.2\msvc2017_64\include\qtcore\qmetaty'
	DB	'pe.h', 00H
	ORG $+3
$SG196756 DB	'qRegisterNormalizedMetaType was called with a not normal'
	DB	'ized type name, please call qRegisterMetaType instead.', 00H
	ORG $+1
$SG196757 DB	'qRegisterNormalizedMetaType', 00H
	ORG $+4
$SG205288 DB	'd:\qt\qt5.14.2\5.14.2\msvc2017_64\include\qtcore\qmetaty'
	DB	'pe.h', 00H
	ORG $+3
$SG205289 DB	'qRegisterNormalizedMetaType was called with a not normal'
	DB	'ized type name, please call qRegisterMetaType instead.', 00H
	ORG $+1
$SG205290 DB	'qRegisterNormalizedMetaType', 00H
	ORG $+4
$SG197116 DB	'd:\qt\qt5.14.2\5.14.2\msvc2017_64\include\qtcore\qmetaty'
	DB	'pe.h', 00H
	ORG $+3
$SG197117 DB	'qRegisterNormalizedMetaType was called with a not normal'
	DB	'ized type name, please call qRegisterMetaType instead.', 00H
	ORG $+1
$SG197118 DB	'qRegisterNormalizedMetaType', 00H
	ORG $+4
$SG205742 DB	'd:\qt\qt5.14.2\5.14.2\msvc2017_64\include\qtcore\qmetaty'
	DB	'pe.h', 00H
	ORG $+3
$SG205743 DB	'qRegisterNormalizedMetaType was called with a not normal'
	DB	'ized type name, please call qRegisterMetaType instead.', 00H
	ORG $+1
$SG205744 DB	'qRegisterNormalizedMetaType', 00H
	ORG $+4
$SG198286 DB	'd:\qt\qt5.14.2\5.14.2\msvc2017_64\include\qtcore\qmetaty'
	DB	'pe.h', 00H
	ORG $+3
$SG198287 DB	'qRegisterNormalizedMetaType was called with a not normal'
	DB	'ized type name, please call qRegisterMetaType instead.', 00H
	ORG $+1
$SG198288 DB	'qRegisterNormalizedMetaType', 00H
	ORG $+4
$SG198647 DB	'd:\qt\qt5.14.2\5.14.2\msvc2017_64\include\qtcore\qmetaty'
	DB	'pe.h', 00H
	ORG $+3
$SG198648 DB	'qRegisterNormalizedMetaType was called with a not normal'
	DB	'ized type name, please call qRegisterMetaType instead.', 00H
	ORG $+1
$SG198649 DB	'qRegisterNormalizedMetaType', 00H
	ORG $+4
$SG199008 DB	'd:\qt\qt5.14.2\5.14.2\msvc2017_64\include\qtcore\qmetaty'
	DB	'pe.h', 00H
	ORG $+3
$SG199009 DB	'qRegisterNormalizedMetaType was called with a not normal'
	DB	'ized type name, please call qRegisterMetaType instead.', 00H
	ORG $+1
$SG199010 DB	'qRegisterNormalizedMetaType', 00H
	ORG $+4
$SG199476 DB	'd:\qt\qt5.14.2\5.14.2\msvc2017_64\include\qtcore\qmetaty'
	DB	'pe.h', 00H
	ORG $+3
$SG199477 DB	'qRegisterNormalizedMetaType was called with a not normal'
	DB	'ized type name, please call qRegisterMetaType instead.', 00H
	ORG $+1
$SG199478 DB	'qRegisterNormalizedMetaType', 00H
	ORG $+4
$SG199837 DB	'd:\qt\qt5.14.2\5.14.2\msvc2017_64\include\qtcore\qmetaty'
	DB	'pe.h', 00H
	ORG $+3
$SG199838 DB	'qRegisterNormalizedMetaType was called with a not normal'
	DB	'ized type name, please call qRegisterMetaType instead.', 00H
	ORG $+1
$SG199839 DB	'qRegisterNormalizedMetaType', 00H
	ORG $+4
$SG200291 DB	'd:\qt\qt5.14.2\5.14.2\msvc2017_64\include\qtcore\qmetaty'
	DB	'pe.h', 00H
	ORG $+3
$SG200292 DB	'qRegisterNormalizedMetaType was called with a not normal'
	DB	'ized type name, please call qRegisterMetaType instead.', 00H
	ORG $+1
$SG200293 DB	'qRegisterNormalizedMetaType', 00H
	ORG $+4
$SG200748 DB	'd:\qt\qt5.14.2\5.14.2\msvc2017_64\include\qtcore\qmetaty'
	DB	'pe.h', 00H
	ORG $+3
$SG200749 DB	'qRegisterNormalizedMetaType was called with a not normal'
	DB	'ized type name, please call qRegisterMetaType instead.', 00H
	ORG $+1
$SG200750 DB	'qRegisterNormalizedMetaType', 00H
	ORG $+4
$SG201201 DB	'd:\qt\qt5.14.2\5.14.2\msvc2017_64\include\qtcore\qmetaty'
	DB	'pe.h', 00H
	ORG $+3
$SG201202 DB	'qRegisterNormalizedMetaType was called with a not normal'
	DB	'ized type name, please call qRegisterMetaType instead.', 00H
	ORG $+1
$SG201203 DB	'qRegisterNormalizedMetaType', 00H
	ORG $+4
$SG193078 DB	'd:\qt\qt5.14.2\5.14.2\msvc2017_64\include\qtcore\qmetaty'
	DB	'pe.h', 00H
	ORG $+3
$SG193079 DB	'qRegisterNormalizedMetaType was called with a not normal'
	DB	'ized type name, please call qRegisterMetaType instead.', 00H
	ORG $+1
$SG193080 DB	'qRegisterNormalizedMetaType', 00H
	ORG $+4
$SG201562 DB	'd:\qt\qt5.14.2\5.14.2\msvc2017_64\include\qtcore\qmetaty'
	DB	'pe.h', 00H
	ORG $+3
$SG201563 DB	'qRegisterNormalizedMetaType was called with a not normal'
	DB	'ized type name, please call qRegisterMetaType instead.', 00H
	ORG $+1
$SG201564 DB	'qRegisterNormalizedMetaType', 00H
	ORG $+4
$SG202090 DB	'd:\qt\qt5.14.2\5.14.2\msvc2017_64\include\qtcore\qmetaty'
	DB	'pe.h', 00H
	ORG $+3
$SG202091 DB	'qRegisterNormalizedMetaType was called with a not normal'
	DB	'ized type name, please call qRegisterMetaType instead.', 00H
	ORG $+1
$SG202092 DB	'qRegisterNormalizedMetaType', 00H
	ORG $+4
$SG202451 DB	'd:\qt\qt5.14.2\5.14.2\msvc2017_64\include\qtcore\qmetaty'
	DB	'pe.h', 00H
	ORG $+3
$SG202452 DB	'qRegisterNormalizedMetaType was called with a not normal'
	DB	'ized type name, please call qRegisterMetaType instead.', 00H
	ORG $+1
$SG202453 DB	'qRegisterNormalizedMetaType', 00H
	ORG $+4
$SG210874 DB	'd:\qt\qt5.14.2\5.14.2\msvc2017_64\include\qtcore\qmetaty'
	DB	'pe.h', 00H
	ORG $+3
$SG210875 DB	'qRegisterNormalizedMetaType was called with a not normal'
	DB	'ized type name, please call qRegisterMetaType instead.', 00H
	ORG $+1
$SG210876 DB	'qRegisterNormalizedMetaType', 00H
	ORG $+4
$SG202812 DB	'd:\qt\qt5.14.2\5.14.2\msvc2017_64\include\qtcore\qmetaty'
	DB	'pe.h', 00H
	ORG $+3
$SG202813 DB	'qRegisterNormalizedMetaType was called with a not normal'
	DB	'ized type name, please call qRegisterMetaType instead.', 00H
	ORG $+1
$SG202814 DB	'qRegisterNormalizedMetaType', 00H
	ORG $+4
$SG203204 DB	'd:\qt\qt5.14.2\5.14.2\msvc2017_64\include\qtcore\qmetaty'
	DB	'pe.h', 00H
	ORG $+3
$SG203205 DB	'qRegisterNormalizedMetaType was called with a not normal'
	DB	'ized type name, please call qRegisterMetaType instead.', 00H
	ORG $+1
$SG203206 DB	'qRegisterNormalizedMetaType', 00H
	ORG $+4
$SG203565 DB	'd:\qt\qt5.14.2\5.14.2\msvc2017_64\include\qtcore\qmetaty'
	DB	'pe.h', 00H
	ORG $+3
$SG203566 DB	'qRegisterNormalizedMetaType was called with a not normal'
	DB	'ized type name, please call qRegisterMetaType instead.', 00H
	ORG $+1
$SG203567 DB	'qRegisterNormalizedMetaType', 00H
	ORG $+4
?qt_meta_stringdata_TalkWindow@@3Uqt_meta_stringdata_TalkWindow_t@@B DD 0ffffffffH ; qt_meta_stringdata_TalkWindow
	DD	0aH
	DD	00H
	ORG $+4
	DQ	00000000000000a8H
	DD	0ffffffffH
	DD	010H
	DD	00H
	ORG $+4
	DQ	000000000000009bH
	DD	0ffffffffH
	DD	00H
	DD	00H
	ORG $+4
	DQ	0000000000000094H
	DD	0ffffffffH
	DD	013H
	DD	00H
	ORG $+4
	DQ	000000000000007dH
	DD	0ffffffffH
	DD	010H
	DD	00H
	ORG $+4
	DQ	0000000000000079H
	DD	0ffffffffH
	DD	04H
	DD	00H
	ORG $+4
	DQ	0000000000000072H
	DD	0ffffffffH
	DD	06H
	DD	00H
	ORG $+4
	DQ	000000000000005fH
	DB	054H
	DB	061H
	DB	06cH
	DB	06bH
	DB	057H
	DB	069H
	DB	06eH
	DB	064H
	DB	06fH
	DB	077H
	DB	00H
	DB	06fH
	DB	06eH
	DB	053H
	DB	065H
	DB	06eH
	DB	064H
	DB	042H
	DB	074H
	DB	06eH
	DB	043H
	DB	06cH
	DB	069H
	DB	063H
	DB	06bH
	DB	065H
	DB	064H
	DB	00H
	DB	00H
	DB	06fH
	DB	06eH
	DB	049H
	DB	074H
	DB	065H
	DB	06dH
	DB	044H
	DB	06fH
	DB	075H
	DB	062H
	DB	06cH
	DB	065H
	DB	043H
	DB	06cH
	DB	069H
	DB	063H
	DB	06bH
	DB	065H
	DB	064H
	DB	00H
	DB	051H
	DB	054H
	DB	072H
	DB	065H
	DB	065H
	DB	057H
	DB	069H
	DB	064H
	DB	067H
	DB	065H
	DB	074H
	DB	049H
	DB	074H
	DB	065H
	DB	06dH
	DB	02aH
	DB	00H
	DB	069H
	DB	074H
	DB	065H
	DB	06dH
	DB	00H
	DB	063H
	DB	06fH
	DB	06cH
	DB	075H
	DB	06dH
	DB	06eH
	DB	00H
	ORG $+2
$SG204019 DB	'd:\qt\qt5.14.2\5.14.2\msvc2017_64\include\qtcore\qmetaty'
	DB	'pe.h', 00H
	ORG $+11
$SG204020 DB	'qRegisterNormalizedMetaType was called with a not normal'
	DB	'ized type name, please call qRegisterMetaType instead.', 00H
	ORG $+1
$SG204021 DB	'qRegisterNormalizedMetaType', 00H
	ORG $+4
?qt_meta_data_TalkWindow@@3QBIB DD 08H			; qt_meta_data_TalkWindow
	DD	00H
	DD	00H
	DD	00H
	DD	02H
	DD	0eH
	DD	00H
	DD	00H
	DD	00H
	DD	00H
	DD	00H
	DD	00H
	DD	00H
	DD	00H
	DD	01H
	DD	01H
	DD	018H
	DD	02H
	DD	08H
	DD	03H
	DD	02H
	DD	01bH
	DD	02H
	DD	08H
	DD	02bH
	DD	01H
	DD	02H
	DD	02bH
	DD	080000004H
	DD	02H
	DD	05H
	DD	06H
	DD	00H
	ORG $+4
$SG204473 DB	'd:\qt\qt5.14.2\5.14.2\msvc2017_64\include\qtcore\qmetaty'
	DB	'pe.h', 00H
	ORG $+11
$SG204474 DB	'qRegisterNormalizedMetaType was called with a not normal'
	DB	'ized type name, please call qRegisterMetaType instead.', 00H
	ORG $+1
$SG204475 DB	'qRegisterNormalizedMetaType', 00H
	ORG $+4
$SG196394 DB	'd:\qt\qt5.14.2\5.14.2\msvc2017_64\include\qtcore\qmetaty'
	DB	'pe.h', 00H
	ORG $+3
$SG196395 DB	'qRegisterNormalizedMetaType was called with a not normal'
	DB	'ized type name, please call qRegisterMetaType instead.', 00H
	ORG $+1
$SG196396 DB	'qRegisterNormalizedMetaType', 00H
CONST	ENDS
PUBLIC	?__empty_global_delete@@YAXPEAX@Z		; __empty_global_delete
PUBLIC	?__empty_global_delete@@YAXPEAX_K@Z		; __empty_global_delete
PUBLIC	??0SuperData@QMetaObject@@QEAA@PEBU1@@Z		; QMetaObject::SuperData::SuperData
PUBLIC	??C?$QScopedPointer@VQObjectData@@U?$QScopedPointerDeleter@VQObjectData@@@@@@QEBAPEAVQObjectData@@XZ ; QScopedPointer<QObjectData,QScopedPointerDeleter<QObjectData> >::operator->
PUBLIC	?metaObject@TalkWindow@@UEBAPEBUQMetaObject@@XZ	; TalkWindow::metaObject
PUBLIC	?qt_metacast@TalkWindow@@UEAAPEAXPEBD@Z		; TalkWindow::qt_metacast
PUBLIC	?qt_metacall@TalkWindow@@UEAAHW4Call@QMetaObject@@HPEAPEAX@Z ; TalkWindow::qt_metacall
PUBLIC	?qt_static_metacall@TalkWindow@@CAXPEAVQObject@@W4Call@QMetaObject@@HPEAPEAX@Z ; TalkWindow::qt_static_metacall
PUBLIC	??$link@$1?staticMetaObject@QWidget@@2UQMetaObject@@B@SuperData@QMetaObject@@SA?AU01@XZ ; QMetaObject::SuperData::link<&QWidget::staticMetaObject>
PUBLIC	??$staticMetaObject@$1?staticMetaObject@QWidget@@2UQMetaObject@@B@QMetaObject@@SAPEBU0@XZ ; QMetaObject::staticMetaObject<&QWidget::staticMetaObject>
PUBLIC	?staticMetaObject@TalkWindow@@2UQMetaObject@@B	; TalkWindow::staticMetaObject
EXTRN	strcmp:PROC
EXTRN	__imp_?dynamicMetaObject@QObjectData@@QEBAPEAUQMetaObject@@XZ:PROC
EXTRN	__imp_?qt_metacast@QWidget@@UEAAPEAXPEBD@Z:PROC
EXTRN	__imp_?qt_metacall@QWidget@@UEAAHW4Call@QMetaObject@@HPEAPEAX@Z:PROC
EXTRN	?onSendBtnClicked@TalkWindow@@AEAAX_N@Z:PROC	; TalkWindow::onSendBtnClicked
EXTRN	?onItemDoubleClicked@TalkWindow@@AEAAXPEAVQTreeWidgetItem@@H@Z:PROC ; TalkWindow::onItemDoubleClicked
EXTRN	__imp_?staticMetaObject@QWidget@@2UQMetaObject@@B:BYTE
_BSS	SEGMENT
?staticMetaObject@TalkWindow@@2UQMetaObject@@B DB 030H DUP (?) ; TalkWindow::staticMetaObject
_BSS	ENDS
pdata	SEGMENT
$pdata$?metaObject@TalkWindow@@UEBAPEBUQMetaObject@@XZ DD imagerel $LN5
	DD	imagerel $LN5+88
	DD	imagerel $unwind$?metaObject@TalkWindow@@UEBAPEBUQMetaObject@@XZ
$pdata$?qt_metacast@TalkWindow@@UEAAPEAXPEBD@Z DD imagerel $LN5
	DD	imagerel $LN5+75
	DD	imagerel $unwind$?qt_metacast@TalkWindow@@UEAAPEAXPEBD@Z
$pdata$?qt_metacall@TalkWindow@@UEAAHW4Call@QMetaObject@@HPEAPEAX@Z DD imagerel $LN9
	DD	imagerel $LN9+174
	DD	imagerel $unwind$?qt_metacall@TalkWindow@@UEAAHW4Call@QMetaObject@@HPEAPEAX@Z
$pdata$?qt_static_metacall@TalkWindow@@CAXPEAVQObject@@W4Call@QMetaObject@@HPEAPEAX@Z DD imagerel $LN9
	DD	imagerel $LN9+154
	DD	imagerel $unwind$?qt_static_metacall@TalkWindow@@CAXPEAVQObject@@W4Call@QMetaObject@@HPEAPEAX@Z
pdata	ENDS
;	COMDAT pdata
pdata	SEGMENT
$pdata$??$link@$1?staticMetaObject@QWidget@@2UQMetaObject@@B@SuperData@QMetaObject@@SA?AU01@XZ DD imagerel $LN3
	DD	imagerel $LN3+37
	DD	imagerel $unwind$??$link@$1?staticMetaObject@QWidget@@2UQMetaObject@@B@SuperData@QMetaObject@@SA?AU01@XZ
pdata	ENDS
;	COMDAT pdata
pdata	SEGMENT
$pdata$??__E?staticMetaObject@TalkWindow@@2UQMetaObject@@B@@YAXXZ DD imagerel ??__E?staticMetaObject@TalkWindow@@2UQMetaObject@@B@@YAXXZ
	DD	imagerel ??__E?staticMetaObject@TalkWindow@@2UQMetaObject@@B@@YAXXZ+85
	DD	imagerel $unwind$??__E?staticMetaObject@TalkWindow@@2UQMetaObject@@B@@YAXXZ
pdata	ENDS
CRT$XCU	SEGMENT
??staticMetaObject$initializer$@TalkWindow@@2P6AXXZEA@@3P6AXXZEA DQ FLAT:??__E?staticMetaObject@TalkWindow@@2UQMetaObject@@B@@YAXXZ ; ??staticMetaObject$initializer$@TalkWindow@@2P6AXXZEA@@3P6AXXZEA
CRT$XCU	ENDS
;	COMDAT xdata
xdata	SEGMENT
$unwind$??__E?staticMetaObject@TalkWindow@@2UQMetaObject@@B@@YAXXZ DD 010401H
	DD	04204H
xdata	ENDS
;	COMDAT xdata
xdata	SEGMENT
$unwind$??$link@$1?staticMetaObject@QWidget@@2UQMetaObject@@B@SuperData@QMetaObject@@SA?AU01@XZ DD 010901H
	DD	04209H
xdata	ENDS
xdata	SEGMENT
$unwind$?metaObject@TalkWindow@@UEBAPEBUQMetaObject@@XZ DD 010901H
	DD	06209H
$unwind$?qt_metacast@TalkWindow@@UEAAPEAXPEBD@Z DD 010e01H
	DD	0420eH
$unwind$?qt_metacall@TalkWindow@@UEAAHW4Call@QMetaObject@@HPEAPEAX@Z DD 011701H
	DD	04217H
$unwind$?qt_static_metacall@TalkWindow@@CAXPEAVQObject@@W4Call@QMetaObject@@HPEAPEAX@Z DD 011701H
	DD	06217H
xdata	ENDS
; Function compile flags: /Odtp
;	COMDAT ??__E?staticMetaObject@TalkWindow@@2UQMetaObject@@B@@YAXXZ
text$di	SEGMENT
??__E?staticMetaObject@TalkWindow@@2UQMetaObject@@B@@YAXXZ PROC ; `dynamic initializer for 'TalkWindow::staticMetaObject'', COMDAT
; File f:\userdata\documents\githubrepo\project_4_qttest\_project\qtqq\qtqq\x64\debug\moc\moc_talkwindow.cpp
; Line 94
	sub	rsp, 40					; 00000028H
; Line 88
	lea	rcx, OFFSET FLAT:?staticMetaObject@TalkWindow@@2UQMetaObject@@B ; TalkWindow::staticMetaObject
	call	??$link@$1?staticMetaObject@QWidget@@2UQMetaObject@@B@SuperData@QMetaObject@@SA?AU01@XZ ; QMetaObject::SuperData::link<&QWidget::staticMetaObject>
; Line 89
	lea	rax, OFFSET FLAT:?qt_meta_stringdata_TalkWindow@@3Uqt_meta_stringdata_TalkWindow_t@@B
	mov	QWORD PTR ?staticMetaObject@TalkWindow@@2UQMetaObject@@B+8, rax
; Line 90
	lea	rax, OFFSET FLAT:?qt_meta_data_TalkWindow@@3QBIB
	mov	QWORD PTR ?staticMetaObject@TalkWindow@@2UQMetaObject@@B+16, rax
; Line 91
	lea	rax, OFFSET FLAT:?qt_static_metacall@TalkWindow@@CAXPEAVQObject@@W4Call@QMetaObject@@HPEAPEAX@Z ; TalkWindow::qt_static_metacall
	mov	QWORD PTR ?staticMetaObject@TalkWindow@@2UQMetaObject@@B+24, rax
; Line 92
	mov	QWORD PTR ?staticMetaObject@TalkWindow@@2UQMetaObject@@B+32, 0
; Line 93
	mov	QWORD PTR ?staticMetaObject@TalkWindow@@2UQMetaObject@@B+40, 0
	add	rsp, 40					; 00000028H
	ret	0
??__E?staticMetaObject@TalkWindow@@2UQMetaObject@@B@@YAXXZ ENDP ; `dynamic initializer for 'TalkWindow::staticMetaObject''
text$di	ENDS
; Function compile flags: /Odtp
;	COMDAT ??$staticMetaObject@$1?staticMetaObject@QWidget@@2UQMetaObject@@B@QMetaObject@@SAPEBU0@XZ
_TEXT	SEGMENT
??$staticMetaObject@$1?staticMetaObject@QWidget@@2UQMetaObject@@B@QMetaObject@@SAPEBU0@XZ PROC ; QMetaObject::staticMetaObject<&QWidget::staticMetaObject>, COMDAT
; File d:\qt\qt5.14.2\5.14.2\msvc2017_64\include\qtcore\qobjectdefs.h
; Line 577
	mov	rax, QWORD PTR __imp_?staticMetaObject@QWidget@@2UQMetaObject@@B
; Line 578
	ret	0
??$staticMetaObject@$1?staticMetaObject@QWidget@@2UQMetaObject@@B@QMetaObject@@SAPEBU0@XZ ENDP ; QMetaObject::staticMetaObject<&QWidget::staticMetaObject>
_TEXT	ENDS
; Function compile flags: /Odtp
;	COMDAT ??$link@$1?staticMetaObject@QWidget@@2UQMetaObject@@B@SuperData@QMetaObject@@SA?AU01@XZ
_TEXT	SEGMENT
__$ReturnUdt$ = 48
??$link@$1?staticMetaObject@QWidget@@2UQMetaObject@@B@SuperData@QMetaObject@@SA?AU01@XZ PROC ; QMetaObject::SuperData::link<&QWidget::staticMetaObject>, COMDAT
; File d:\qt\qt5.14.2\5.14.2\msvc2017_64\include\qtcore\qobjectdefs.h
; Line 600
$LN3:
	mov	QWORD PTR [rsp+8], rcx
	sub	rsp, 40					; 00000028H
	call	??$staticMetaObject@$1?staticMetaObject@QWidget@@2UQMetaObject@@B@QMetaObject@@SAPEBU0@XZ ; QMetaObject::staticMetaObject<&QWidget::staticMetaObject>
	mov	rdx, rax
	mov	rcx, QWORD PTR __$ReturnUdt$[rsp]
	call	??0SuperData@QMetaObject@@QEAA@PEBU1@@Z	; QMetaObject::SuperData::SuperData
	mov	rax, QWORD PTR __$ReturnUdt$[rsp]
	add	rsp, 40					; 00000028H
	ret	0
??$link@$1?staticMetaObject@QWidget@@2UQMetaObject@@B@SuperData@QMetaObject@@SA?AU01@XZ ENDP ; QMetaObject::SuperData::link<&QWidget::staticMetaObject>
_TEXT	ENDS
; Function compile flags: /Odtp
_TEXT	SEGMENT
tv69 = 32
_t$1 = 40
_o$ = 64
_c$ = 72
_id$ = 80
_a$ = 88
?qt_static_metacall@TalkWindow@@CAXPEAVQObject@@W4Call@QMetaObject@@HPEAPEAX@Z PROC ; TalkWindow::qt_static_metacall
; File f:\userdata\documents\githubrepo\project_4_qttest\_project\qtqq\qtqq\x64\debug\moc\moc_talkwindow.cpp
; Line 75
$LN9:
	mov	QWORD PTR [rsp+32], r9
	mov	DWORD PTR [rsp+24], r8d
	mov	DWORD PTR [rsp+16], edx
	mov	QWORD PTR [rsp+8], rcx
	sub	rsp, 56					; 00000038H
; Line 76
	cmp	DWORD PTR _c$[rsp], 0
	jne	SHORT $LN4@qt_static_
; Line 77
	mov	rax, QWORD PTR _o$[rsp]
	mov	QWORD PTR _t$1[rsp], rax
; Line 79
	mov	eax, DWORD PTR _id$[rsp]
	mov	DWORD PTR tv69[rsp], eax
	cmp	DWORD PTR tv69[rsp], 0
	je	SHORT $LN5@qt_static_
	cmp	DWORD PTR tv69[rsp], 1
	je	SHORT $LN6@qt_static_
	jmp	SHORT $LN7@qt_static_
$LN5@qt_static_:
; Line 80
	mov	eax, 8
	imul	rax, rax, 1
	mov	rcx, QWORD PTR _a$[rsp]
	mov	rax, QWORD PTR [rcx+rax]
	movzx	edx, BYTE PTR [rax]
	mov	rcx, QWORD PTR _t$1[rsp]
	call	?onSendBtnClicked@TalkWindow@@AEAAX_N@Z	; TalkWindow::onSendBtnClicked
	jmp	SHORT $LN2@qt_static_
$LN6@qt_static_:
; Line 81
	mov	eax, 8
	imul	rax, rax, 2
	mov	rcx, QWORD PTR _a$[rsp]
	mov	rax, QWORD PTR [rcx+rax]
	mov	ecx, 8
	imul	rcx, rcx, 1
	mov	rdx, QWORD PTR _a$[rsp]
	mov	rcx, QWORD PTR [rdx+rcx]
	mov	r8d, DWORD PTR [rax]
	mov	rdx, QWORD PTR [rcx]
	mov	rcx, QWORD PTR _t$1[rsp]
	call	?onItemDoubleClicked@TalkWindow@@AEAAXPEAVQTreeWidgetItem@@H@Z ; TalkWindow::onItemDoubleClicked
$LN7@qt_static_:
$LN2@qt_static_:
$LN4@qt_static_:
; Line 85
	add	rsp, 56					; 00000038H
	ret	0
?qt_static_metacall@TalkWindow@@CAXPEAVQObject@@W4Call@QMetaObject@@HPEAPEAX@Z ENDP ; TalkWindow::qt_static_metacall
_TEXT	ENDS
; Function compile flags: /Odtp
_TEXT	SEGMENT
this$ = 48
_c$ = 56
_id$ = 64
_a$ = 72
?qt_metacall@TalkWindow@@UEAAHW4Call@QMetaObject@@HPEAPEAX@Z PROC ; TalkWindow::qt_metacall
; File f:\userdata\documents\githubrepo\project_4_qttest\_project\qtqq\qtqq\x64\debug\moc\moc_talkwindow.cpp
; Line 111
$LN9:
	mov	QWORD PTR [rsp+32], r9
	mov	DWORD PTR [rsp+24], r8d
	mov	DWORD PTR [rsp+16], edx
	mov	QWORD PTR [rsp+8], rcx
	sub	rsp, 40					; 00000028H
; Line 112
	mov	r9, QWORD PTR _a$[rsp]
	mov	r8d, DWORD PTR _id$[rsp]
	mov	edx, DWORD PTR _c$[rsp]
	mov	rcx, QWORD PTR this$[rsp]
	call	QWORD PTR __imp_?qt_metacall@QWidget@@UEAAHW4Call@QMetaObject@@HPEAPEAX@Z
	mov	DWORD PTR _id$[rsp], eax
; Line 113
	cmp	DWORD PTR _id$[rsp], 0
	jge	SHORT $LN2@qt_metacal
; Line 114
	mov	eax, DWORD PTR _id$[rsp]
	jmp	SHORT $LN1@qt_metacal
$LN2@qt_metacal:
; Line 115
	cmp	DWORD PTR _c$[rsp], 0
	jne	SHORT $LN3@qt_metacal
; Line 116
	cmp	DWORD PTR _id$[rsp], 2
	jge	SHORT $LN5@qt_metacal
; Line 117
	mov	r9, QWORD PTR _a$[rsp]
	mov	r8d, DWORD PTR _id$[rsp]
	mov	edx, DWORD PTR _c$[rsp]
	mov	rcx, QWORD PTR this$[rsp]
	call	?qt_static_metacall@TalkWindow@@CAXPEAVQObject@@W4Call@QMetaObject@@HPEAPEAX@Z ; TalkWindow::qt_static_metacall
$LN5@qt_metacal:
; Line 118
	mov	eax, DWORD PTR _id$[rsp]
	sub	eax, 2
	mov	DWORD PTR _id$[rsp], eax
	jmp	SHORT $LN4@qt_metacal
$LN3@qt_metacal:
; Line 119
	cmp	DWORD PTR _c$[rsp], 12
	jne	SHORT $LN6@qt_metacal
; Line 120
	cmp	DWORD PTR _id$[rsp], 2
	jge	SHORT $LN7@qt_metacal
; Line 121
	mov	eax, 8
	imul	rax, rax, 0
	mov	rcx, QWORD PTR _a$[rsp]
	mov	rax, QWORD PTR [rcx+rax]
	mov	DWORD PTR [rax], -1
$LN7@qt_metacal:
; Line 122
	mov	eax, DWORD PTR _id$[rsp]
	sub	eax, 2
	mov	DWORD PTR _id$[rsp], eax
$LN6@qt_metacal:
$LN4@qt_metacal:
; Line 124
	mov	eax, DWORD PTR _id$[rsp]
$LN1@qt_metacal:
; Line 125
	add	rsp, 40					; 00000028H
	ret	0
?qt_metacall@TalkWindow@@UEAAHW4Call@QMetaObject@@HPEAPEAX@Z ENDP ; TalkWindow::qt_metacall
_TEXT	ENDS
; Function compile flags: /Odtp
_TEXT	SEGMENT
this$ = 48
_clname$ = 56
?qt_metacast@TalkWindow@@UEAAPEAXPEBD@Z PROC		; TalkWindow::qt_metacast
; File f:\userdata\documents\githubrepo\project_4_qttest\_project\qtqq\qtqq\x64\debug\moc\moc_talkwindow.cpp
; Line 103
$LN5:
	mov	QWORD PTR [rsp+16], rdx
	mov	QWORD PTR [rsp+8], rcx
	sub	rsp, 40					; 00000028H
; Line 104
	cmp	QWORD PTR _clname$[rsp], 0
	jne	SHORT $LN2@qt_metacas
	xor	eax, eax
	jmp	SHORT $LN1@qt_metacas
$LN2@qt_metacas:
; Line 105
	lea	rdx, OFFSET FLAT:?qt_meta_stringdata_TalkWindow@@3Uqt_meta_stringdata_TalkWindow_t@@B+168
	mov	rcx, QWORD PTR _clname$[rsp]
	call	strcmp
	test	eax, eax
	jne	SHORT $LN3@qt_metacas
; Line 106
	mov	rax, QWORD PTR this$[rsp]
	jmp	SHORT $LN1@qt_metacas
$LN3@qt_metacas:
; Line 107
	mov	rdx, QWORD PTR _clname$[rsp]
	mov	rcx, QWORD PTR this$[rsp]
	call	QWORD PTR __imp_?qt_metacast@QWidget@@UEAAPEAXPEBD@Z
$LN1@qt_metacas:
; Line 108
	add	rsp, 40					; 00000028H
	ret	0
?qt_metacast@TalkWindow@@UEAAPEAXPEBD@Z ENDP		; TalkWindow::qt_metacast
_TEXT	ENDS
; Function compile flags: /Odtp
_TEXT	SEGMENT
tv82 = 32
this$ = 64
?metaObject@TalkWindow@@UEBAPEBUQMetaObject@@XZ PROC	; TalkWindow::metaObject
; File f:\userdata\documents\githubrepo\project_4_qttest\_project\qtqq\qtqq\x64\debug\moc\moc_talkwindow.cpp
; Line 98
$LN5:
	mov	QWORD PTR [rsp+8], rcx
	sub	rsp, 56					; 00000038H
; Line 99
	mov	rax, QWORD PTR this$[rsp]
	add	rax, 8
	mov	rcx, rax
	call	??C?$QScopedPointer@VQObjectData@@U?$QScopedPointerDeleter@VQObjectData@@@@@@QEBAPEAVQObjectData@@XZ ; QScopedPointer<QObjectData,QScopedPointerDeleter<QObjectData> >::operator->
	cmp	QWORD PTR [rax+40], 0
	je	SHORT $LN3@metaObject
	mov	rax, QWORD PTR this$[rsp]
	add	rax, 8
	mov	rcx, rax
	call	??C?$QScopedPointer@VQObjectData@@U?$QScopedPointerDeleter@VQObjectData@@@@@@QEBAPEAVQObjectData@@XZ ; QScopedPointer<QObjectData,QScopedPointerDeleter<QObjectData> >::operator->
	mov	rcx, rax
	call	QWORD PTR __imp_?dynamicMetaObject@QObjectData@@QEBAPEAUQMetaObject@@XZ
	mov	QWORD PTR tv82[rsp], rax
	jmp	SHORT $LN4@metaObject
$LN3@metaObject:
	lea	rax, OFFSET FLAT:?staticMetaObject@TalkWindow@@2UQMetaObject@@B ; TalkWindow::staticMetaObject
	mov	QWORD PTR tv82[rsp], rax
$LN4@metaObject:
	mov	rax, QWORD PTR tv82[rsp]
; Line 100
	add	rsp, 56					; 00000038H
	ret	0
?metaObject@TalkWindow@@UEBAPEBUQMetaObject@@XZ ENDP	; TalkWindow::metaObject
_TEXT	ENDS
; Function compile flags: /Odtp
;	COMDAT ??C?$QScopedPointer@VQObjectData@@U?$QScopedPointerDeleter@VQObjectData@@@@@@QEBAPEAVQObjectData@@XZ
_TEXT	SEGMENT
this$ = 8
??C?$QScopedPointer@VQObjectData@@U?$QScopedPointerDeleter@VQObjectData@@@@@@QEBAPEAVQObjectData@@XZ PROC ; QScopedPointer<QObjectData,QScopedPointerDeleter<QObjectData> >::operator->, COMDAT
; File d:\qt\qt5.14.2\5.14.2\msvc2017_64\include\qtcore\qscopedpointer.h
; Line 117
	mov	QWORD PTR [rsp+8], rcx
; Line 118
	mov	rax, QWORD PTR this$[rsp]
	mov	rax, QWORD PTR [rax]
; Line 119
	ret	0
??C?$QScopedPointer@VQObjectData@@U?$QScopedPointerDeleter@VQObjectData@@@@@@QEBAPEAVQObjectData@@XZ ENDP ; QScopedPointer<QObjectData,QScopedPointerDeleter<QObjectData> >::operator->
_TEXT	ENDS
; Function compile flags: /Odtp
;	COMDAT ??0SuperData@QMetaObject@@QEAA@PEBU1@@Z
_TEXT	SEGMENT
this$ = 8
mo$ = 16
??0SuperData@QMetaObject@@QEAA@PEBU1@@Z PROC		; QMetaObject::SuperData::SuperData, COMDAT
; File d:\qt\qt5.14.2\5.14.2\msvc2017_64\include\qtcore\qobjectdefs.h
; Line 584
	mov	QWORD PTR [rsp+16], rdx
	mov	QWORD PTR [rsp+8], rcx
	mov	rax, QWORD PTR this$[rsp]
	mov	rcx, QWORD PTR mo$[rsp]
	mov	QWORD PTR [rax], rcx
	mov	rax, QWORD PTR this$[rsp]
	ret	0
??0SuperData@QMetaObject@@QEAA@PEBU1@@Z ENDP		; QMetaObject::SuperData::SuperData
_TEXT	ENDS
; Function compile flags: /Odtp
;	COMDAT ?__empty_global_delete@@YAXPEAX_K@Z
_TEXT	SEGMENT
__formal$ = 8
__formal$ = 16
?__empty_global_delete@@YAXPEAX_K@Z PROC		; __empty_global_delete, COMDAT
; File f:\userdata\documents\githubrepo\project_4_qttest\_project\qtqq\qtqq\x64\debug\moc\moc_talkwindow.cpp
; Line 128
	mov	QWORD PTR [rsp+16], rdx
	mov	QWORD PTR [rsp+8], rcx
	ret	0
?__empty_global_delete@@YAXPEAX_K@Z ENDP		; __empty_global_delete
_TEXT	ENDS
; Function compile flags: /Odtp
;	COMDAT ?__empty_global_delete@@YAXPEAX@Z
_TEXT	SEGMENT
__formal$ = 8
?__empty_global_delete@@YAXPEAX@Z PROC			; __empty_global_delete, COMDAT
; File f:\userdata\documents\githubrepo\project_4_qttest\_project\qtqq\qtqq\x64\debug\moc\moc_talkwindow.cpp
; Line 128
	mov	QWORD PTR [rsp+8], rcx
	ret	0
?__empty_global_delete@@YAXPEAX@Z ENDP			; __empty_global_delete
_TEXT	ENDS
END
