; Listing generated by Microsoft (R) Optimizing Compiler Version 19.16.27051.0 

include listing.inc

INCLUDELIB MSVCRTD
INCLUDELIB OLDNAMES

PUBLIC	?staticMetaObject@CCMainWindow@@2UQMetaObject@@B ; CCMainWindow::staticMetaObject
PUBLIC	?qt_static_metacall@CCMainWindow@@CAXPEAVQObject@@W4Call@QMetaObject@@HPEAPEAX@Z ; CCMainWindow::qt_static_metacall
EXTRN	?staticMetaObject@BasicWindow@@2UQMetaObject@@B:BYTE ; BasicWindow::staticMetaObject
CONST	SEGMENT
?staticMetaObject@CCMainWindow@@2UQMetaObject@@B DQ FLAT:?staticMetaObject@BasicWindow@@2UQMetaObject@@B ; CCMainWindow::staticMetaObject
	DQ	FLAT:?qt_meta_stringdata_CCMainWindow@@3Uqt_meta_stringdata_CCMainWindow_t@@B
	DQ	FLAT:?qt_meta_data_CCMainWindow@@3QBIB
	DQ	FLAT:?qt_static_metacall@CCMainWindow@@CAXPEAVQObject@@W4Call@QMetaObject@@HPEAPEAX@Z
	DQ	0000000000000000H
	DQ	0000000000000000H
$SG175111 DB	'd:\qt\qt5.14.2\5.14.2\msvc2017_64\include\qtcore\qmetaty'
	DB	'pe.h', 00H
	ORG $+3
$SG175112 DB	'qRegisterNormalizedMetaType was called with a not normal'
	DB	'ized type name, please call qRegisterMetaType instead.', 00H
	ORG $+1
$SG175113 DB	'qRegisterNormalizedMetaType', 00H
	ORG $+4
?qt_meta_stringdata_CCMainWindow@@3Uqt_meta_stringdata_CCMainWindow_t@@B DD 0ffffffffH ; qt_meta_stringdata_CCMainWindow
	DD	0cH
	DD	00H
	ORG $+4
	DQ	0000000000000150H
	DD	0ffffffffH
	DD	010H
	DD	00H
	ORG $+4
	DQ	0000000000000145H
	DD	0ffffffffH
	DD	00H
	DD	00H
	ORG $+4
	DQ	000000000000013eH
	DD	0ffffffffH
	DD	0bH
	DD	00H
	ORG $+4
	DQ	0000000000000127H
	DD	0ffffffffH
	DD	03H
	DD	00H
	ORG $+4
	DQ	000000000000011bH
	DD	0ffffffffH
	DD	07H
	DD	00H
	ORG $+4
	DQ	0000000000000107H
	DD	0ffffffffH
	DD	05H
	DD	00H
	ORG $+4
	DQ	00000000000000f7H
	DD	0ffffffffH
	DD	0dH
	DD	00H
	ORG $+4
	DQ	00000000000000e5H
	DD	0ffffffffH
	DD	010H
	DD	00H
	ORG $+4
	DQ	00000000000000dbH
	DD	0ffffffffH
	DD	04H
	DD	00H
	ORG $+4
	DQ	00000000000000d4H
	DD	0ffffffffH
	DD	06H
	DD	00H
	ORG $+4
	DQ	00000000000000c1H
	DD	0ffffffffH
	DD	0eH
	DD	00H
	ORG $+4
	DQ	00000000000000b0H
	DD	0ffffffffH
	DD	0fH
	DD	00H
	ORG $+4
	DQ	00000000000000a7H
	DD	0ffffffffH
	DD	013H
	DD	00H
	ORG $+4
	DQ	000000000000009fH
	DB	043H
	DB	043H
	DB	04dH
	DB	061H
	DB	069H
	DB	06eH
	DB	057H
	DB	069H
	DB	06eH
	DB	064H
	DB	06fH
	DB	077H
	DB	00H
	DB	06fH
	DB	06eH
	DB	041H
	DB	070H
	DB	070H
	DB	049H
	DB	063H
	DB	06fH
	DB	06eH
	DB	043H
	DB	06cH
	DB	069H
	DB	063H
	DB	06bH
	DB	065H
	DB	064H
	DB	00H
	DB	00H
	DB	065H
	DB	076H
	DB	065H
	DB	06eH
	DB	074H
	DB	046H
	DB	069H
	DB	06cH
	DB	074H
	DB	065H
	DB	072H
	DB	00H
	DB	06fH
	DB	062H
	DB	06aH
	DB	00H
	DB	051H
	DB	045H
	DB	076H
	DB	065H
	DB	06eH
	DB	074H
	DB	02aH
	DB	00H
	DB	065H
	DB	076H
	DB	065H
	DB	06eH
	DB	074H
	DB	00H
	DB	06fH
	DB	06eH
	DB	049H
	DB	074H
	DB	065H
	DB	06dH
	DB	043H
	DB	06cH
	DB	069H
	DB	063H
	DB	06bH
	DB	065H
	DB	064H
	DB	00H
	DB	051H
	DB	054H
	DB	072H
	DB	065H
	DB	065H
	DB	057H
	DB	069H
	DB	064H
	DB	067H
	DB	065H
	DB	074H
	DB	049H
	DB	074H
	DB	065H
	DB	06dH
	DB	02aH
	DB	00H
	DB	069H
	DB	074H
	DB	065H
	DB	06dH
	DB	00H
	DB	063H
	DB	06fH
	DB	06cH
	DB	075H
	DB	06dH
	DB	06eH
	DB	00H
	DB	06fH
	DB	06eH
	DB	049H
	DB	074H
	DB	065H
	DB	06dH
	DB	045H
	DB	078H
	DB	070H
	DB	061H
	DB	06eH
	DB	064H
	DB	065H
	DB	064H
	DB	00H
	DB	06fH
	DB	06eH
	DB	049H
	DB	074H
	DB	065H
	DB	06dH
	DB	043H
	DB	06fH
	DB	06cH
	DB	06cH
	DB	061H
	DB	070H
	DB	073H
	DB	065H
	DB	064H
	DB	00H
	DB	06fH
	DB	06eH
	DB	049H
	DB	074H
	DB	065H
	DB	06dH
	DB	044H
	DB	06fH
	DB	075H
	DB	062H
	DB	06cH
	DB	065H
	DB	043H
	DB	06cH
	DB	069H
	DB	063H
	DB	06bH
	DB	065H
	DB	064H
	DB	00H
	ORG $+5
?qt_meta_data_CCMainWindow@@3QBIB DD 08H		; qt_meta_data_CCMainWindow
	DD	00H
	DD	00H
	DD	00H
	DD	06H
	DD	0eH
	DD	00H
	DD	00H
	DD	00H
	DD	00H
	DD	00H
	DD	00H
	DD	00H
	DD	00H
	DD	01H
	DD	00H
	DD	02cH
	DD	02H
	DD	08H
	DD	03H
	DD	02H
	DD	02dH
	DD	02H
	DD	08H
	DD	07H
	DD	02H
	DD	032H
	DD	02H
	DD	08H
	DD	0bH
	DD	01H
	DD	037H
	DD	02H
	DD	08H
	DD	0cH
	DD	01H
	DD	03aH
	DD	02H
	DD	08H
	DD	0dH
	DD	02H
	DD	03dH
	DD	02H
	DD	08H
	DD	02bH
	DD	01H
	DD	027H
	DD	080000005H
	DD	04H
	DD	06H
	DD	02bH
	DD	080000008H
	DD	02H
	DD	09H
	DD	0aH
	DD	02bH
	DD	080000008H
	DD	09H
	DD	02bH
	DD	080000008H
	DD	09H
	DD	02bH
	DD	080000008H
	DD	02H
	DD	09H
	DD	0aH
	DD	00H
	ORG $+4
$SG175472 DB	'd:\qt\qt5.14.2\5.14.2\msvc2017_64\include\qtcore\qmetaty'
	DB	'pe.h', 00H
	ORG $+3
$SG175473 DB	'qRegisterNormalizedMetaType was called with a not normal'
	DB	'ized type name, please call qRegisterMetaType instead.', 00H
	ORG $+1
$SG175474 DB	'qRegisterNormalizedMetaType', 00H
	ORG $+4
$SG175833 DB	'd:\qt\qt5.14.2\5.14.2\msvc2017_64\include\qtcore\qmetaty'
	DB	'pe.h', 00H
	ORG $+3
$SG175834 DB	'qRegisterNormalizedMetaType was called with a not normal'
	DB	'ized type name, please call qRegisterMetaType instead.', 00H
	ORG $+1
$SG175835 DB	'qRegisterNormalizedMetaType', 00H
	ORG $+4
$SG177003 DB	'd:\qt\qt5.14.2\5.14.2\msvc2017_64\include\qtcore\qmetaty'
	DB	'pe.h', 00H
	ORG $+3
$SG177004 DB	'qRegisterNormalizedMetaType was called with a not normal'
	DB	'ized type name, please call qRegisterMetaType instead.', 00H
	ORG $+1
$SG177005 DB	'qRegisterNormalizedMetaType', 00H
	ORG $+4
$SG177364 DB	'd:\qt\qt5.14.2\5.14.2\msvc2017_64\include\qtcore\qmetaty'
	DB	'pe.h', 00H
	ORG $+3
$SG177365 DB	'qRegisterNormalizedMetaType was called with a not normal'
	DB	'ized type name, please call qRegisterMetaType instead.', 00H
	ORG $+1
$SG177366 DB	'qRegisterNormalizedMetaType', 00H
	ORG $+4
$SG177725 DB	'd:\qt\qt5.14.2\5.14.2\msvc2017_64\include\qtcore\qmetaty'
	DB	'pe.h', 00H
	ORG $+3
$SG177726 DB	'qRegisterNormalizedMetaType was called with a not normal'
	DB	'ized type name, please call qRegisterMetaType instead.', 00H
	ORG $+1
$SG177727 DB	'qRegisterNormalizedMetaType', 00H
	ORG $+4
$SG178179 DB	'd:\qt\qt5.14.2\5.14.2\msvc2017_64\include\qtcore\qmetaty'
	DB	'pe.h', 00H
	ORG $+3
$SG178180 DB	'qRegisterNormalizedMetaType was called with a not normal'
	DB	'ized type name, please call qRegisterMetaType instead.', 00H
	ORG $+1
$SG178181 DB	'qRegisterNormalizedMetaType', 00H
	ORG $+4
$SG171834 DB	'd:\qt\qt5.14.2\5.14.2\msvc2017_64\include\qtcore\qmetaty'
	DB	'pe.h', 00H
	ORG $+3
$SG171835 DB	'qRegisterNormalizedMetaType was called with a not normal'
	DB	'ized type name, please call qRegisterMetaType instead.', 00H
	ORG $+1
$SG171836 DB	'qRegisterNormalizedMetaType', 00H
CONST	ENDS
PUBLIC	?__empty_global_delete@@YAXPEAX@Z		; __empty_global_delete
PUBLIC	?__empty_global_delete@@YAXPEAX_K@Z		; __empty_global_delete
PUBLIC	??C?$QScopedPointer@VQObjectData@@U?$QScopedPointerDeleter@VQObjectData@@@@@@QEBAPEAVQObjectData@@XZ ; QScopedPointer<QObjectData,QScopedPointerDeleter<QObjectData> >::operator->
PUBLIC	?metaObject@CCMainWindow@@UEBAPEBUQMetaObject@@XZ ; CCMainWindow::metaObject
PUBLIC	?qt_metacast@CCMainWindow@@UEAAPEAXPEBD@Z	; CCMainWindow::qt_metacast
PUBLIC	?qt_metacall@CCMainWindow@@UEAAHW4Call@QMetaObject@@HPEAPEAX@Z ; CCMainWindow::qt_metacall
PUBLIC	??$move@AEA_N@std@@YA$$QEA_NAEA_N@Z		; std::move<bool &>
EXTRN	strcmp:PROC
EXTRN	__imp_?dynamicMetaObject@QObjectData@@QEBAPEAUQMetaObject@@XZ:PROC
EXTRN	?qt_metacast@BasicWindow@@UEAAPEAXPEBD@Z:PROC	; BasicWindow::qt_metacast
EXTRN	?qt_metacall@BasicWindow@@UEAAHW4Call@QMetaObject@@HPEAPEAX@Z:PROC ; BasicWindow::qt_metacall
EXTRN	?onAppIconClicked@CCMainWindow@@AEAAXXZ:PROC	; CCMainWindow::onAppIconClicked
EXTRN	?onItemClicked@CCMainWindow@@AEAAXPEAVQTreeWidgetItem@@H@Z:PROC ; CCMainWindow::onItemClicked
EXTRN	?onItemExpanded@CCMainWindow@@AEAAXPEAVQTreeWidgetItem@@@Z:PROC ; CCMainWindow::onItemExpanded
EXTRN	?onItemCollapsed@CCMainWindow@@AEAAXPEAVQTreeWidgetItem@@@Z:PROC ; CCMainWindow::onItemCollapsed
EXTRN	?onItemDoubleClicked@CCMainWindow@@AEAAXPEAVQTreeWidgetItem@@H@Z:PROC ; CCMainWindow::onItemDoubleClicked
EXTRN	__ImageBase:BYTE
pdata	SEGMENT
$pdata$?metaObject@CCMainWindow@@UEBAPEBUQMetaObject@@XZ DD imagerel $LN5
	DD	imagerel $LN5+88
	DD	imagerel $unwind$?metaObject@CCMainWindow@@UEBAPEBUQMetaObject@@XZ
$pdata$?qt_metacast@CCMainWindow@@UEAAPEAXPEBD@Z DD imagerel $LN5
	DD	imagerel $LN5+74
	DD	imagerel $unwind$?qt_metacast@CCMainWindow@@UEAAPEAXPEBD@Z
$pdata$?qt_metacall@CCMainWindow@@UEAAHW4Call@QMetaObject@@HPEAPEAX@Z DD imagerel $LN9
	DD	imagerel $LN9+173
	DD	imagerel $unwind$?qt_metacall@CCMainWindow@@UEAAHW4Call@QMetaObject@@HPEAPEAX@Z
$pdata$?qt_static_metacall@CCMainWindow@@CAXPEAVQObject@@W4Call@QMetaObject@@HPEAPEAX@Z DD imagerel $LN15
	DD	imagerel $LN15+436
	DD	imagerel $unwind$?qt_static_metacall@CCMainWindow@@CAXPEAVQObject@@W4Call@QMetaObject@@HPEAPEAX@Z
pdata	ENDS
xdata	SEGMENT
$unwind$?metaObject@CCMainWindow@@UEBAPEBUQMetaObject@@XZ DD 010901H
	DD	06209H
$unwind$?qt_metacast@CCMainWindow@@UEAAPEAXPEBD@Z DD 010e01H
	DD	0420eH
$unwind$?qt_metacall@CCMainWindow@@UEAAHW4Call@QMetaObject@@HPEAPEAX@Z DD 011701H
	DD	04217H
$unwind$?qt_static_metacall@CCMainWindow@@CAXPEAVQObject@@W4Call@QMetaObject@@HPEAPEAX@Z DD 011701H
	DD	08217H
xdata	ENDS
; Function compile flags: /Odtp
;	COMDAT ??$move@AEA_N@std@@YA$$QEA_NAEA_N@Z
_TEXT	SEGMENT
_Arg$ = 8
??$move@AEA_N@std@@YA$$QEA_NAEA_N@Z PROC		; std::move<bool &>, COMDAT
; File d:\program files (x86)\microsoft visual studio\2017\community\vc\tools\msvc\14.16.27023\include\type_traits
; Line 1588
	mov	QWORD PTR [rsp+8], rcx
; Line 1589
	mov	rax, QWORD PTR _Arg$[rsp]
; Line 1590
	ret	0
??$move@AEA_N@std@@YA$$QEA_NAEA_N@Z ENDP		; std::move<bool &>
_TEXT	ENDS
; Function compile flags: /Odtp
_TEXT	SEGMENT
_r$1 = 32
tv69 = 36
_t$2 = 40
tv156 = 48
_o$ = 80
_c$ = 88
_id$ = 96
_a$ = 104
?qt_static_metacall@CCMainWindow@@CAXPEAVQObject@@W4Call@QMetaObject@@HPEAPEAX@Z PROC ; CCMainWindow::qt_static_metacall
; File f:\userdata\documents\githubrepo\project_4_qttest\_project\qtqq\qtqq\x64\debug\moc\moc_ccmainwindow.cpp
; Line 92
$LN15:
	mov	QWORD PTR [rsp+32], r9
	mov	DWORD PTR [rsp+24], r8d
	mov	DWORD PTR [rsp+16], edx
	mov	QWORD PTR [rsp+8], rcx
	sub	rsp, 72					; 00000048H
; Line 93
	cmp	DWORD PTR _c$[rsp], 0
	jne	$LN4@qt_static_
; Line 94
	mov	rax, QWORD PTR _o$[rsp]
	mov	QWORD PTR _t$2[rsp], rax
; Line 96
	mov	eax, DWORD PTR _id$[rsp]
	mov	DWORD PTR tv69[rsp], eax
	cmp	DWORD PTR tv69[rsp], 5
	ja	$LN12@qt_static_
	movsxd	rax, DWORD PTR tv69[rsp]
	lea	rcx, OFFSET FLAT:__ImageBase
	mov	eax, DWORD PTR $LN14@qt_static_[rcx+rax*4]
	add	rax, rcx
	jmp	rax
$LN5@qt_static_:
; Line 97
	mov	rcx, QWORD PTR _t$2[rsp]
	call	?onAppIconClicked@CCMainWindow@@AEAAXXZ	; CCMainWindow::onAppIconClicked
	jmp	$LN2@qt_static_
$LN6@qt_static_:
; Line 98
	mov	eax, 8
	imul	rax, rax, 2
	mov	rcx, QWORD PTR _a$[rsp]
	mov	rax, QWORD PTR [rcx+rax]
	mov	ecx, 8
	imul	rcx, rcx, 1
	mov	rdx, QWORD PTR _a$[rsp]
	mov	rcx, QWORD PTR [rdx+rcx]
	mov	rdx, QWORD PTR _t$2[rsp]
	mov	rdx, QWORD PTR [rdx]
	mov	QWORD PTR tv156[rsp], rdx
	mov	r8, QWORD PTR [rax]
	mov	rdx, QWORD PTR [rcx]
	mov	rcx, QWORD PTR _t$2[rsp]
	mov	rax, QWORD PTR tv156[rsp]
	call	QWORD PTR [rax+40]
	mov	BYTE PTR _r$1[rsp], al
; Line 99
	mov	eax, 8
	imul	rax, rax, 0
	mov	rcx, QWORD PTR _a$[rsp]
	cmp	QWORD PTR [rcx+rax], 0
	je	SHORT $LN7@qt_static_
	lea	rcx, QWORD PTR _r$1[rsp]
	call	??$move@AEA_N@std@@YA$$QEA_NAEA_N@Z	; std::move<bool &>
	mov	ecx, 8
	imul	rcx, rcx, 0
	mov	rdx, QWORD PTR _a$[rsp]
	mov	rcx, QWORD PTR [rdx+rcx]
	movzx	eax, BYTE PTR [rax]
	mov	BYTE PTR [rcx], al
$LN7@qt_static_:
	jmp	$LN2@qt_static_
$LN8@qt_static_:
; Line 100
	mov	eax, 8
	imul	rax, rax, 2
	mov	rcx, QWORD PTR _a$[rsp]
	mov	rax, QWORD PTR [rcx+rax]
	mov	ecx, 8
	imul	rcx, rcx, 1
	mov	rdx, QWORD PTR _a$[rsp]
	mov	rcx, QWORD PTR [rdx+rcx]
	mov	r8d, DWORD PTR [rax]
	mov	rdx, QWORD PTR [rcx]
	mov	rcx, QWORD PTR _t$2[rsp]
	call	?onItemClicked@CCMainWindow@@AEAAXPEAVQTreeWidgetItem@@H@Z ; CCMainWindow::onItemClicked
	jmp	SHORT $LN2@qt_static_
$LN9@qt_static_:
; Line 101
	mov	eax, 8
	imul	rax, rax, 1
	mov	rcx, QWORD PTR _a$[rsp]
	mov	rax, QWORD PTR [rcx+rax]
	mov	rdx, QWORD PTR [rax]
	mov	rcx, QWORD PTR _t$2[rsp]
	call	?onItemExpanded@CCMainWindow@@AEAAXPEAVQTreeWidgetItem@@@Z ; CCMainWindow::onItemExpanded
	jmp	SHORT $LN2@qt_static_
$LN10@qt_static_:
; Line 102
	mov	eax, 8
	imul	rax, rax, 1
	mov	rcx, QWORD PTR _a$[rsp]
	mov	rax, QWORD PTR [rcx+rax]
	mov	rdx, QWORD PTR [rax]
	mov	rcx, QWORD PTR _t$2[rsp]
	call	?onItemCollapsed@CCMainWindow@@AEAAXPEAVQTreeWidgetItem@@@Z ; CCMainWindow::onItemCollapsed
	jmp	SHORT $LN2@qt_static_
$LN11@qt_static_:
; Line 103
	mov	eax, 8
	imul	rax, rax, 2
	mov	rcx, QWORD PTR _a$[rsp]
	mov	rax, QWORD PTR [rcx+rax]
	mov	ecx, 8
	imul	rcx, rcx, 1
	mov	rdx, QWORD PTR _a$[rsp]
	mov	rcx, QWORD PTR [rdx+rcx]
	mov	r8d, DWORD PTR [rax]
	mov	rdx, QWORD PTR [rcx]
	mov	rcx, QWORD PTR _t$2[rsp]
	call	?onItemDoubleClicked@CCMainWindow@@AEAAXPEAVQTreeWidgetItem@@H@Z ; CCMainWindow::onItemDoubleClicked
$LN12@qt_static_:
$LN2@qt_static_:
$LN4@qt_static_:
; Line 107
	add	rsp, 72					; 00000048H
	ret	0
	npad	2
$LN14@qt_static_:
	DD	$LN5@qt_static_
	DD	$LN6@qt_static_
	DD	$LN8@qt_static_
	DD	$LN9@qt_static_
	DD	$LN10@qt_static_
	DD	$LN11@qt_static_
?qt_static_metacall@CCMainWindow@@CAXPEAVQObject@@W4Call@QMetaObject@@HPEAPEAX@Z ENDP ; CCMainWindow::qt_static_metacall
_TEXT	ENDS
; Function compile flags: /Odtp
_TEXT	SEGMENT
this$ = 48
_c$ = 56
_id$ = 64
_a$ = 72
?qt_metacall@CCMainWindow@@UEAAHW4Call@QMetaObject@@HPEAPEAX@Z PROC ; CCMainWindow::qt_metacall
; File f:\userdata\documents\githubrepo\project_4_qttest\_project\qtqq\qtqq\x64\debug\moc\moc_ccmainwindow.cpp
; Line 133
$LN9:
	mov	QWORD PTR [rsp+32], r9
	mov	DWORD PTR [rsp+24], r8d
	mov	DWORD PTR [rsp+16], edx
	mov	QWORD PTR [rsp+8], rcx
	sub	rsp, 40					; 00000028H
; Line 134
	mov	r9, QWORD PTR _a$[rsp]
	mov	r8d, DWORD PTR _id$[rsp]
	mov	edx, DWORD PTR _c$[rsp]
	mov	rcx, QWORD PTR this$[rsp]
	call	?qt_metacall@BasicWindow@@UEAAHW4Call@QMetaObject@@HPEAPEAX@Z ; BasicWindow::qt_metacall
	mov	DWORD PTR _id$[rsp], eax
; Line 135
	cmp	DWORD PTR _id$[rsp], 0
	jge	SHORT $LN2@qt_metacal
; Line 136
	mov	eax, DWORD PTR _id$[rsp]
	jmp	SHORT $LN1@qt_metacal
$LN2@qt_metacal:
; Line 137
	cmp	DWORD PTR _c$[rsp], 0
	jne	SHORT $LN3@qt_metacal
; Line 138
	cmp	DWORD PTR _id$[rsp], 6
	jge	SHORT $LN5@qt_metacal
; Line 139
	mov	r9, QWORD PTR _a$[rsp]
	mov	r8d, DWORD PTR _id$[rsp]
	mov	edx, DWORD PTR _c$[rsp]
	mov	rcx, QWORD PTR this$[rsp]
	call	?qt_static_metacall@CCMainWindow@@CAXPEAVQObject@@W4Call@QMetaObject@@HPEAPEAX@Z ; CCMainWindow::qt_static_metacall
$LN5@qt_metacal:
; Line 140
	mov	eax, DWORD PTR _id$[rsp]
	sub	eax, 6
	mov	DWORD PTR _id$[rsp], eax
	jmp	SHORT $LN4@qt_metacal
$LN3@qt_metacal:
; Line 141
	cmp	DWORD PTR _c$[rsp], 12
	jne	SHORT $LN6@qt_metacal
; Line 142
	cmp	DWORD PTR _id$[rsp], 6
	jge	SHORT $LN7@qt_metacal
; Line 143
	mov	eax, 8
	imul	rax, rax, 0
	mov	rcx, QWORD PTR _a$[rsp]
	mov	rax, QWORD PTR [rcx+rax]
	mov	DWORD PTR [rax], -1
$LN7@qt_metacal:
; Line 144
	mov	eax, DWORD PTR _id$[rsp]
	sub	eax, 6
	mov	DWORD PTR _id$[rsp], eax
$LN6@qt_metacal:
$LN4@qt_metacal:
; Line 146
	mov	eax, DWORD PTR _id$[rsp]
$LN1@qt_metacal:
; Line 147
	add	rsp, 40					; 00000028H
	ret	0
?qt_metacall@CCMainWindow@@UEAAHW4Call@QMetaObject@@HPEAPEAX@Z ENDP ; CCMainWindow::qt_metacall
_TEXT	ENDS
; Function compile flags: /Odtp
_TEXT	SEGMENT
this$ = 48
_clname$ = 56
?qt_metacast@CCMainWindow@@UEAAPEAXPEBD@Z PROC		; CCMainWindow::qt_metacast
; File f:\userdata\documents\githubrepo\project_4_qttest\_project\qtqq\qtqq\x64\debug\moc\moc_ccmainwindow.cpp
; Line 125
$LN5:
	mov	QWORD PTR [rsp+16], rdx
	mov	QWORD PTR [rsp+8], rcx
	sub	rsp, 40					; 00000028H
; Line 126
	cmp	QWORD PTR _clname$[rsp], 0
	jne	SHORT $LN2@qt_metacas
	xor	eax, eax
	jmp	SHORT $LN1@qt_metacas
$LN2@qt_metacas:
; Line 127
	lea	rdx, OFFSET FLAT:?qt_meta_stringdata_CCMainWindow@@3Uqt_meta_stringdata_CCMainWindow_t@@B+336
	mov	rcx, QWORD PTR _clname$[rsp]
	call	strcmp
	test	eax, eax
	jne	SHORT $LN3@qt_metacas
; Line 128
	mov	rax, QWORD PTR this$[rsp]
	jmp	SHORT $LN1@qt_metacas
$LN3@qt_metacas:
; Line 129
	mov	rdx, QWORD PTR _clname$[rsp]
	mov	rcx, QWORD PTR this$[rsp]
	call	?qt_metacast@BasicWindow@@UEAAPEAXPEBD@Z ; BasicWindow::qt_metacast
$LN1@qt_metacas:
; Line 130
	add	rsp, 40					; 00000028H
	ret	0
?qt_metacast@CCMainWindow@@UEAAPEAXPEBD@Z ENDP		; CCMainWindow::qt_metacast
_TEXT	ENDS
; Function compile flags: /Odtp
_TEXT	SEGMENT
tv82 = 32
this$ = 64
?metaObject@CCMainWindow@@UEBAPEBUQMetaObject@@XZ PROC	; CCMainWindow::metaObject
; File f:\userdata\documents\githubrepo\project_4_qttest\_project\qtqq\qtqq\x64\debug\moc\moc_ccmainwindow.cpp
; Line 120
$LN5:
	mov	QWORD PTR [rsp+8], rcx
	sub	rsp, 56					; 00000038H
; Line 121
	mov	rax, QWORD PTR this$[rsp]
	add	rax, 8
	mov	rcx, rax
	call	??C?$QScopedPointer@VQObjectData@@U?$QScopedPointerDeleter@VQObjectData@@@@@@QEBAPEAVQObjectData@@XZ ; QScopedPointer<QObjectData,QScopedPointerDeleter<QObjectData> >::operator->
	cmp	QWORD PTR [rax+40], 0
	je	SHORT $LN3@metaObject
	mov	rax, QWORD PTR this$[rsp]
	add	rax, 8
	mov	rcx, rax
	call	??C?$QScopedPointer@VQObjectData@@U?$QScopedPointerDeleter@VQObjectData@@@@@@QEBAPEAVQObjectData@@XZ ; QScopedPointer<QObjectData,QScopedPointerDeleter<QObjectData> >::operator->
	mov	rcx, rax
	call	QWORD PTR __imp_?dynamicMetaObject@QObjectData@@QEBAPEAUQMetaObject@@XZ
	mov	QWORD PTR tv82[rsp], rax
	jmp	SHORT $LN4@metaObject
$LN3@metaObject:
	lea	rax, OFFSET FLAT:?staticMetaObject@CCMainWindow@@2UQMetaObject@@B ; CCMainWindow::staticMetaObject
	mov	QWORD PTR tv82[rsp], rax
$LN4@metaObject:
	mov	rax, QWORD PTR tv82[rsp]
; Line 122
	add	rsp, 56					; 00000038H
	ret	0
?metaObject@CCMainWindow@@UEBAPEBUQMetaObject@@XZ ENDP	; CCMainWindow::metaObject
_TEXT	ENDS
; Function compile flags: /Odtp
;	COMDAT ??C?$QScopedPointer@VQObjectData@@U?$QScopedPointerDeleter@VQObjectData@@@@@@QEBAPEAVQObjectData@@XZ
_TEXT	SEGMENT
this$ = 8
??C?$QScopedPointer@VQObjectData@@U?$QScopedPointerDeleter@VQObjectData@@@@@@QEBAPEAVQObjectData@@XZ PROC ; QScopedPointer<QObjectData,QScopedPointerDeleter<QObjectData> >::operator->, COMDAT
; File d:\qt\qt5.14.2\5.14.2\msvc2017_64\include\qtcore\qscopedpointer.h
; Line 117
	mov	QWORD PTR [rsp+8], rcx
; Line 118
	mov	rax, QWORD PTR this$[rsp]
	mov	rax, QWORD PTR [rax]
; Line 119
	ret	0
??C?$QScopedPointer@VQObjectData@@U?$QScopedPointerDeleter@VQObjectData@@@@@@QEBAPEAVQObjectData@@XZ ENDP ; QScopedPointer<QObjectData,QScopedPointerDeleter<QObjectData> >::operator->
_TEXT	ENDS
; Function compile flags: /Odtp
;	COMDAT ?__empty_global_delete@@YAXPEAX_K@Z
_TEXT	SEGMENT
__formal$ = 8
__formal$ = 16
?__empty_global_delete@@YAXPEAX_K@Z PROC		; __empty_global_delete, COMDAT
; File f:\userdata\documents\githubrepo\project_4_qttest\_project\qtqq\qtqq\x64\debug\moc\moc_ccmainwindow.cpp
; Line 150
	mov	QWORD PTR [rsp+16], rdx
	mov	QWORD PTR [rsp+8], rcx
	ret	0
?__empty_global_delete@@YAXPEAX_K@Z ENDP		; __empty_global_delete
_TEXT	ENDS
; Function compile flags: /Odtp
;	COMDAT ?__empty_global_delete@@YAXPEAX@Z
_TEXT	SEGMENT
__formal$ = 8
?__empty_global_delete@@YAXPEAX@Z PROC			; __empty_global_delete, COMDAT
; File f:\userdata\documents\githubrepo\project_4_qttest\_project\qtqq\qtqq\x64\debug\moc\moc_ccmainwindow.cpp
; Line 150
	mov	QWORD PTR [rsp+8], rcx
	ret	0
?__empty_global_delete@@YAXPEAX@Z ENDP			; __empty_global_delete
_TEXT	ENDS
END
