; Listing generated by Microsoft (R) Optimizing Compiler Version 19.16.27051.0 

include listing.inc

INCLUDELIB MSVCRTD
INCLUDELIB OLDNAMES

CONST	SEGMENT
$SG148208 DB	'd:\qt\qt5.14.2\5.14.2\msvc2017_64\include\qtcore\qmetaty'
	DB	'pe.h', 00H
	ORG $+3
$SG148209 DB	'qRegisterNormalizedMetaType was called with a not normal'
	DB	'ized type name, please call qRegisterMetaType instead.', 00H
	ORG $+1
$SG148210 DB	'qRegisterNormalizedMetaType', 00H
	ORG $+4
$SG151296 DB	'd:\qt\qt5.14.2\5.14.2\msvc2017_64\include\qtcore\qmetaty'
	DB	'pe.h', 00H
	ORG $+3
$SG151297 DB	'qRegisterNormalizedMetaType was called with a not normal'
	DB	'ized type name, please call qRegisterMetaType instead.', 00H
	ORG $+1
$SG151298 DB	'qRegisterNormalizedMetaType', 00H
	ORG $+4
$SG151657 DB	'd:\qt\qt5.14.2\5.14.2\msvc2017_64\include\qtcore\qmetaty'
	DB	'pe.h', 00H
	ORG $+3
$SG151658 DB	'qRegisterNormalizedMetaType was called with a not normal'
	DB	'ized type name, please call qRegisterMetaType instead.', 00H
	ORG $+1
$SG151659 DB	'qRegisterNormalizedMetaType', 00H
	ORG $+4
?qt_meta_stringdata_RootContactItem@@3Uqt_meta_stringdata_RootContactItem_t@@B DD 0ffffffffH ; qt_meta_stringdata_RootContactItem
	DD	0fH
	DD	00H
	ORG $+4
	DQ	0000000000000030H
	DD	0ffffffffH
	DD	08H
	DD	00H
	ORG $+4
	DQ	0000000000000028H
	DB	052H
	DB	06fH
	DB	06fH
	DB	074H
	DB	043H
	DB	06fH
	DB	06eH
	DB	074H
	DB	061H
	DB	063H
	DB	074H
	DB	049H
	DB	074H
	DB	065H
	DB	06dH
	DB	00H
	DB	072H
	DB	06fH
	DB	074H
	DB	061H
	DB	074H
	DB	069H
	DB	06fH
	DB	06eH
	DB	00H
	ORG $+7
?qt_meta_data_RootContactItem@@3QBIB DD 08H		; qt_meta_data_RootContactItem
	DD	00H
	DD	00H
	DD	00H
	DD	00H
	DD	00H
	DD	01H
	DD	0eH
	DD	00H
	DD	00H
	DD	00H
	DD	00H
	DD	00H
	DD	00H
	DD	01H
	DD	02H
	DD	095103H
	DD	00H
$SG152018 DB	'd:\qt\qt5.14.2\5.14.2\msvc2017_64\include\qtcore\qmetaty'
	DB	'pe.h', 00H
	ORG $+11
$SG152019 DB	'qRegisterNormalizedMetaType was called with a not normal'
	DB	'ized type name, please call qRegisterMetaType instead.', 00H
	ORG $+1
$SG152020 DB	'qRegisterNormalizedMetaType', 00H
CONST	ENDS
PUBLIC	?__empty_global_delete@@YAXPEAX@Z		; __empty_global_delete
PUBLIC	?__empty_global_delete@@YAXPEAX_K@Z		; __empty_global_delete
PUBLIC	??0SuperData@QMetaObject@@QEAA@PEBU1@@Z		; QMetaObject::SuperData::SuperData
PUBLIC	??C?$QScopedPointer@VQObjectData@@U?$QScopedPointerDeleter@VQObjectData@@@@@@QEBAPEAVQObjectData@@XZ ; QScopedPointer<QObjectData,QScopedPointerDeleter<QObjectData> >::operator->
PUBLIC	?metaObject@RootContactItem@@UEBAPEBUQMetaObject@@XZ ; RootContactItem::metaObject
PUBLIC	?qt_metacast@RootContactItem@@UEAAPEAXPEBD@Z	; RootContactItem::qt_metacast
PUBLIC	?qt_metacall@RootContactItem@@UEAAHW4Call@QMetaObject@@HPEAPEAX@Z ; RootContactItem::qt_metacall
PUBLIC	?qt_static_metacall@RootContactItem@@CAXPEAVQObject@@W4Call@QMetaObject@@HPEAPEAX@Z ; RootContactItem::qt_static_metacall
PUBLIC	??$link@$1?staticMetaObject@QLabel@@2UQMetaObject@@B@SuperData@QMetaObject@@SA?AU01@XZ ; QMetaObject::SuperData::link<&QLabel::staticMetaObject>
PUBLIC	??$staticMetaObject@$1?staticMetaObject@QLabel@@2UQMetaObject@@B@QMetaObject@@SAPEBU0@XZ ; QMetaObject::staticMetaObject<&QLabel::staticMetaObject>
PUBLIC	?staticMetaObject@RootContactItem@@2UQMetaObject@@B ; RootContactItem::staticMetaObject
EXTRN	strcmp:PROC
EXTRN	__imp_?dynamicMetaObject@QObjectData@@QEBAPEAUQMetaObject@@XZ:PROC
EXTRN	__imp_?qt_metacast@QLabel@@UEAAPEAXPEBD@Z:PROC
EXTRN	__imp_?qt_metacall@QLabel@@UEAAHW4Call@QMetaObject@@HPEAPEAX@Z:PROC
EXTRN	?rotation@RootContactItem@@AEAAHXZ:PROC		; RootContactItem::rotation
EXTRN	?setRotation@RootContactItem@@AEAAXH@Z:PROC	; RootContactItem::setRotation
EXTRN	__imp_?staticMetaObject@QLabel@@2UQMetaObject@@B:BYTE
_BSS	SEGMENT
?staticMetaObject@RootContactItem@@2UQMetaObject@@B DB 030H DUP (?) ; RootContactItem::staticMetaObject
_BSS	ENDS
pdata	SEGMENT
$pdata$?metaObject@RootContactItem@@UEBAPEBUQMetaObject@@XZ DD imagerel $LN5
	DD	imagerel $LN5+88
	DD	imagerel $unwind$?metaObject@RootContactItem@@UEBAPEBUQMetaObject@@XZ
$pdata$?qt_metacast@RootContactItem@@UEAAPEAXPEBD@Z DD imagerel $LN5
	DD	imagerel $LN5+75
	DD	imagerel $unwind$?qt_metacast@RootContactItem@@UEAAPEAXPEBD@Z
$pdata$?qt_metacall@RootContactItem@@UEAAHW4Call@QMetaObject@@HPEAPEAX@Z DD imagerel $LN16
	DD	imagerel $LN16+234
	DD	imagerel $unwind$?qt_metacall@RootContactItem@@UEAAHW4Call@QMetaObject@@HPEAPEAX@Z
$pdata$?qt_static_metacall@RootContactItem@@CAXPEAVQObject@@W4Call@QMetaObject@@HPEAPEAX@Z DD imagerel $LN16
	DD	imagerel $LN16+178
	DD	imagerel $unwind$?qt_static_metacall@RootContactItem@@CAXPEAVQObject@@W4Call@QMetaObject@@HPEAPEAX@Z
pdata	ENDS
;	COMDAT pdata
pdata	SEGMENT
$pdata$??$link@$1?staticMetaObject@QLabel@@2UQMetaObject@@B@SuperData@QMetaObject@@SA?AU01@XZ DD imagerel $LN3
	DD	imagerel $LN3+37
	DD	imagerel $unwind$??$link@$1?staticMetaObject@QLabel@@2UQMetaObject@@B@SuperData@QMetaObject@@SA?AU01@XZ
pdata	ENDS
;	COMDAT pdata
pdata	SEGMENT
$pdata$??__E?staticMetaObject@RootContactItem@@2UQMetaObject@@B@@YAXXZ DD imagerel ??__E?staticMetaObject@RootContactItem@@2UQMetaObject@@B@@YAXXZ
	DD	imagerel ??__E?staticMetaObject@RootContactItem@@2UQMetaObject@@B@@YAXXZ+85
	DD	imagerel $unwind$??__E?staticMetaObject@RootContactItem@@2UQMetaObject@@B@@YAXXZ
pdata	ENDS
CRT$XCU	SEGMENT
??staticMetaObject$initializer$@RootContactItem@@2P6AXXZEA@@3P6AXXZEA DQ FLAT:??__E?staticMetaObject@RootContactItem@@2UQMetaObject@@B@@YAXXZ ; ??staticMetaObject$initializer$@RootContactItem@@2P6AXXZEA@@3P6AXXZEA
CRT$XCU	ENDS
;	COMDAT xdata
xdata	SEGMENT
$unwind$??__E?staticMetaObject@RootContactItem@@2UQMetaObject@@B@@YAXXZ DD 010401H
	DD	04204H
xdata	ENDS
;	COMDAT xdata
xdata	SEGMENT
$unwind$??$link@$1?staticMetaObject@QLabel@@2UQMetaObject@@B@SuperData@QMetaObject@@SA?AU01@XZ DD 010901H
	DD	04209H
xdata	ENDS
xdata	SEGMENT
$unwind$?metaObject@RootContactItem@@UEBAPEBUQMetaObject@@XZ DD 010901H
	DD	06209H
$unwind$?qt_metacast@RootContactItem@@UEAAPEAXPEBD@Z DD 010e01H
	DD	0420eH
$unwind$?qt_metacall@RootContactItem@@UEAAHW4Call@QMetaObject@@HPEAPEAX@Z DD 011701H
	DD	04217H
$unwind$?qt_static_metacall@RootContactItem@@CAXPEAVQObject@@W4Call@QMetaObject@@HPEAPEAX@Z DD 011701H
	DD	0a217H
xdata	ENDS
; Function compile flags: /Odtp
;	COMDAT ??__E?staticMetaObject@RootContactItem@@2UQMetaObject@@B@@YAXXZ
text$di	SEGMENT
??__E?staticMetaObject@RootContactItem@@2UQMetaObject@@B@@YAXXZ PROC ; `dynamic initializer for 'RootContactItem::staticMetaObject'', COMDAT
; File f:\userdata\documents\githubrepo\project_4_qttest\_project\qtqq\qtqq\x64\debug\moc\moc_rootconcatitem.cpp
; Line 98
	sub	rsp, 40					; 00000028H
; Line 92
	lea	rcx, OFFSET FLAT:?staticMetaObject@RootContactItem@@2UQMetaObject@@B ; RootContactItem::staticMetaObject
	call	??$link@$1?staticMetaObject@QLabel@@2UQMetaObject@@B@SuperData@QMetaObject@@SA?AU01@XZ ; QMetaObject::SuperData::link<&QLabel::staticMetaObject>
; Line 93
	lea	rax, OFFSET FLAT:?qt_meta_stringdata_RootContactItem@@3Uqt_meta_stringdata_RootContactItem_t@@B
	mov	QWORD PTR ?staticMetaObject@RootContactItem@@2UQMetaObject@@B+8, rax
; Line 94
	lea	rax, OFFSET FLAT:?qt_meta_data_RootContactItem@@3QBIB
	mov	QWORD PTR ?staticMetaObject@RootContactItem@@2UQMetaObject@@B+16, rax
; Line 95
	lea	rax, OFFSET FLAT:?qt_static_metacall@RootContactItem@@CAXPEAVQObject@@W4Call@QMetaObject@@HPEAPEAX@Z ; RootContactItem::qt_static_metacall
	mov	QWORD PTR ?staticMetaObject@RootContactItem@@2UQMetaObject@@B+24, rax
; Line 96
	mov	QWORD PTR ?staticMetaObject@RootContactItem@@2UQMetaObject@@B+32, 0
; Line 97
	mov	QWORD PTR ?staticMetaObject@RootContactItem@@2UQMetaObject@@B+40, 0
	add	rsp, 40					; 00000028H
	ret	0
??__E?staticMetaObject@RootContactItem@@2UQMetaObject@@B@@YAXXZ ENDP ; `dynamic initializer for 'RootContactItem::staticMetaObject''
text$di	ENDS
; Function compile flags: /Odtp
;	COMDAT ??$staticMetaObject@$1?staticMetaObject@QLabel@@2UQMetaObject@@B@QMetaObject@@SAPEBU0@XZ
_TEXT	SEGMENT
??$staticMetaObject@$1?staticMetaObject@QLabel@@2UQMetaObject@@B@QMetaObject@@SAPEBU0@XZ PROC ; QMetaObject::staticMetaObject<&QLabel::staticMetaObject>, COMDAT
; File d:\qt\qt5.14.2\5.14.2\msvc2017_64\include\qtcore\qobjectdefs.h
; Line 577
	mov	rax, QWORD PTR __imp_?staticMetaObject@QLabel@@2UQMetaObject@@B
; Line 578
	ret	0
??$staticMetaObject@$1?staticMetaObject@QLabel@@2UQMetaObject@@B@QMetaObject@@SAPEBU0@XZ ENDP ; QMetaObject::staticMetaObject<&QLabel::staticMetaObject>
_TEXT	ENDS
; Function compile flags: /Odtp
;	COMDAT ??$link@$1?staticMetaObject@QLabel@@2UQMetaObject@@B@SuperData@QMetaObject@@SA?AU01@XZ
_TEXT	SEGMENT
__$ReturnUdt$ = 48
??$link@$1?staticMetaObject@QLabel@@2UQMetaObject@@B@SuperData@QMetaObject@@SA?AU01@XZ PROC ; QMetaObject::SuperData::link<&QLabel::staticMetaObject>, COMDAT
; File d:\qt\qt5.14.2\5.14.2\msvc2017_64\include\qtcore\qobjectdefs.h
; Line 600
$LN3:
	mov	QWORD PTR [rsp+8], rcx
	sub	rsp, 40					; 00000028H
	call	??$staticMetaObject@$1?staticMetaObject@QLabel@@2UQMetaObject@@B@QMetaObject@@SAPEBU0@XZ ; QMetaObject::staticMetaObject<&QLabel::staticMetaObject>
	mov	rdx, rax
	mov	rcx, QWORD PTR __$ReturnUdt$[rsp]
	call	??0SuperData@QMetaObject@@QEAA@PEBU1@@Z	; QMetaObject::SuperData::SuperData
	mov	rax, QWORD PTR __$ReturnUdt$[rsp]
	add	rsp, 40					; 00000028H
	ret	0
??$link@$1?staticMetaObject@QLabel@@2UQMetaObject@@B@SuperData@QMetaObject@@SA?AU01@XZ ENDP ; QMetaObject::SuperData::link<&QLabel::staticMetaObject>
_TEXT	ENDS
; Function compile flags: /Odtp
_TEXT	SEGMENT
tv71 = 32
tv82 = 36
_t$1 = 40
_v$2 = 48
_v$3 = 56
_t$4 = 64
_o$ = 96
_c$ = 104
_id$ = 112
_a$ = 120
?qt_static_metacall@RootContactItem@@CAXPEAVQObject@@W4Call@QMetaObject@@HPEAPEAX@Z PROC ; RootContactItem::qt_static_metacall
; File f:\userdata\documents\githubrepo\project_4_qttest\_project\qtqq\qtqq\x64\debug\moc\moc_rootconcatitem.cpp
; Line 63
$LN16:
	mov	QWORD PTR [rsp+32], r9
	mov	DWORD PTR [rsp+24], r8d
	mov	DWORD PTR [rsp+16], edx
	mov	QWORD PTR [rsp+8], rcx
	sub	rsp, 88					; 00000058H
; Line 66
	cmp	DWORD PTR _c$[rsp], 1
	jne	SHORT $LN6@qt_static_
; Line 67
	mov	rax, QWORD PTR _o$[rsp]
	mov	QWORD PTR _t$1[rsp], rax
; Line 69
	mov	eax, 8
	imul	rax, rax, 0
	mov	rcx, QWORD PTR _a$[rsp]
	mov	rax, QWORD PTR [rcx+rax]
	mov	QWORD PTR _v$2[rsp], rax
; Line 70
	mov	eax, DWORD PTR _id$[rsp]
	mov	DWORD PTR tv71[rsp], eax
	cmp	DWORD PTR tv71[rsp], 0
	je	SHORT $LN8@qt_static_
	jmp	SHORT $LN9@qt_static_
$LN8@qt_static_:
; Line 71
	mov	rcx, QWORD PTR _t$1[rsp]
	call	?rotation@RootContactItem@@AEAAHXZ	; RootContactItem::rotation
	mov	rcx, QWORD PTR _v$2[rsp]
	mov	DWORD PTR [rcx], eax
$LN9@qt_static_:
; Line 74
	jmp	SHORT $LN7@qt_static_
$LN6@qt_static_:
	cmp	DWORD PTR _c$[rsp], 2
	jne	SHORT $LN10@qt_static_
; Line 75
	mov	rax, QWORD PTR _o$[rsp]
	mov	QWORD PTR _t$4[rsp], rax
; Line 77
	mov	eax, 8
	imul	rax, rax, 0
	mov	rcx, QWORD PTR _a$[rsp]
	mov	rax, QWORD PTR [rcx+rax]
	mov	QWORD PTR _v$3[rsp], rax
; Line 78
	mov	eax, DWORD PTR _id$[rsp]
	mov	DWORD PTR tv82[rsp], eax
	cmp	DWORD PTR tv82[rsp], 0
	je	SHORT $LN12@qt_static_
	jmp	SHORT $LN13@qt_static_
$LN12@qt_static_:
; Line 79
	mov	rax, QWORD PTR _v$3[rsp]
	mov	edx, DWORD PTR [rax]
	mov	rcx, QWORD PTR _t$4[rsp]
	call	?setRotation@RootContactItem@@AEAAXH@Z	; RootContactItem::setRotation
$LN13@qt_static_:
$LN10@qt_static_:
$LN7@qt_static_:
; Line 89
	add	rsp, 88					; 00000058H
	ret	0
?qt_static_metacall@RootContactItem@@CAXPEAVQObject@@W4Call@QMetaObject@@HPEAPEAX@Z ENDP ; RootContactItem::qt_static_metacall
_TEXT	ENDS
; Function compile flags: /Odtp
_TEXT	SEGMENT
this$ = 48
_c$ = 56
_id$ = 64
_a$ = 72
?qt_metacall@RootContactItem@@UEAAHW4Call@QMetaObject@@HPEAPEAX@Z PROC ; RootContactItem::qt_metacall
; File f:\userdata\documents\githubrepo\project_4_qttest\_project\qtqq\qtqq\x64\debug\moc\moc_rootconcatitem.cpp
; Line 115
$LN16:
	mov	QWORD PTR [rsp+32], r9
	mov	DWORD PTR [rsp+24], r8d
	mov	DWORD PTR [rsp+16], edx
	mov	QWORD PTR [rsp+8], rcx
	sub	rsp, 40					; 00000028H
; Line 116
	mov	r9, QWORD PTR _a$[rsp]
	mov	r8d, DWORD PTR _id$[rsp]
	mov	edx, DWORD PTR _c$[rsp]
	mov	rcx, QWORD PTR this$[rsp]
	call	QWORD PTR __imp_?qt_metacall@QLabel@@UEAAHW4Call@QMetaObject@@HPEAPEAX@Z
	mov	DWORD PTR _id$[rsp], eax
; Line 117
	cmp	DWORD PTR _id$[rsp], 0
	jge	SHORT $LN2@qt_metacal
; Line 118
	mov	eax, DWORD PTR _id$[rsp]
	jmp	$LN1@qt_metacal
$LN2@qt_metacal:
; Line 122
	cmp	DWORD PTR _c$[rsp], 1
	je	SHORT $LN5@qt_metacal
	cmp	DWORD PTR _c$[rsp], 2
	je	SHORT $LN5@qt_metacal
	cmp	DWORD PTR _c$[rsp], 3
	je	SHORT $LN5@qt_metacal
	cmp	DWORD PTR _c$[rsp], 11
	jne	SHORT $LN3@qt_metacal
$LN5@qt_metacal:
; Line 123
	mov	r9, QWORD PTR _a$[rsp]
	mov	r8d, DWORD PTR _id$[rsp]
	mov	edx, DWORD PTR _c$[rsp]
	mov	rcx, QWORD PTR this$[rsp]
	call	?qt_static_metacall@RootContactItem@@CAXPEAVQObject@@W4Call@QMetaObject@@HPEAPEAX@Z ; RootContactItem::qt_static_metacall
; Line 124
	mov	eax, DWORD PTR _id$[rsp]
	dec	eax
	mov	DWORD PTR _id$[rsp], eax
	jmp	SHORT $LN4@qt_metacal
$LN3@qt_metacal:
; Line 125
	cmp	DWORD PTR _c$[rsp], 4
	jne	SHORT $LN6@qt_metacal
; Line 126
	mov	eax, DWORD PTR _id$[rsp]
	dec	eax
	mov	DWORD PTR _id$[rsp], eax
	jmp	SHORT $LN7@qt_metacal
$LN6@qt_metacal:
; Line 127
	cmp	DWORD PTR _c$[rsp], 5
	jne	SHORT $LN8@qt_metacal
; Line 128
	mov	eax, DWORD PTR _id$[rsp]
	dec	eax
	mov	DWORD PTR _id$[rsp], eax
	jmp	SHORT $LN9@qt_metacal
$LN8@qt_metacal:
; Line 129
	cmp	DWORD PTR _c$[rsp], 6
	jne	SHORT $LN10@qt_metacal
; Line 130
	mov	eax, DWORD PTR _id$[rsp]
	dec	eax
	mov	DWORD PTR _id$[rsp], eax
	jmp	SHORT $LN11@qt_metacal
$LN10@qt_metacal:
; Line 131
	cmp	DWORD PTR _c$[rsp], 7
	jne	SHORT $LN12@qt_metacal
; Line 132
	mov	eax, DWORD PTR _id$[rsp]
	dec	eax
	mov	DWORD PTR _id$[rsp], eax
	jmp	SHORT $LN13@qt_metacal
$LN12@qt_metacal:
; Line 133
	cmp	DWORD PTR _c$[rsp], 8
	jne	SHORT $LN14@qt_metacal
; Line 134
	mov	eax, DWORD PTR _id$[rsp]
	dec	eax
	mov	DWORD PTR _id$[rsp], eax
$LN14@qt_metacal:
$LN13@qt_metacal:
$LN11@qt_metacal:
$LN9@qt_metacal:
$LN7@qt_metacal:
$LN4@qt_metacal:
; Line 137
	mov	eax, DWORD PTR _id$[rsp]
$LN1@qt_metacal:
; Line 138
	add	rsp, 40					; 00000028H
	ret	0
?qt_metacall@RootContactItem@@UEAAHW4Call@QMetaObject@@HPEAPEAX@Z ENDP ; RootContactItem::qt_metacall
_TEXT	ENDS
; Function compile flags: /Odtp
_TEXT	SEGMENT
this$ = 48
_clname$ = 56
?qt_metacast@RootContactItem@@UEAAPEAXPEBD@Z PROC	; RootContactItem::qt_metacast
; File f:\userdata\documents\githubrepo\project_4_qttest\_project\qtqq\qtqq\x64\debug\moc\moc_rootconcatitem.cpp
; Line 107
$LN5:
	mov	QWORD PTR [rsp+16], rdx
	mov	QWORD PTR [rsp+8], rcx
	sub	rsp, 40					; 00000028H
; Line 108
	cmp	QWORD PTR _clname$[rsp], 0
	jne	SHORT $LN2@qt_metacas
	xor	eax, eax
	jmp	SHORT $LN1@qt_metacas
$LN2@qt_metacas:
; Line 109
	lea	rdx, OFFSET FLAT:?qt_meta_stringdata_RootContactItem@@3Uqt_meta_stringdata_RootContactItem_t@@B+48
	mov	rcx, QWORD PTR _clname$[rsp]
	call	strcmp
	test	eax, eax
	jne	SHORT $LN3@qt_metacas
; Line 110
	mov	rax, QWORD PTR this$[rsp]
	jmp	SHORT $LN1@qt_metacas
$LN3@qt_metacas:
; Line 111
	mov	rdx, QWORD PTR _clname$[rsp]
	mov	rcx, QWORD PTR this$[rsp]
	call	QWORD PTR __imp_?qt_metacast@QLabel@@UEAAPEAXPEBD@Z
$LN1@qt_metacas:
; Line 112
	add	rsp, 40					; 00000028H
	ret	0
?qt_metacast@RootContactItem@@UEAAPEAXPEBD@Z ENDP	; RootContactItem::qt_metacast
_TEXT	ENDS
; Function compile flags: /Odtp
_TEXT	SEGMENT
tv82 = 32
this$ = 64
?metaObject@RootContactItem@@UEBAPEBUQMetaObject@@XZ PROC ; RootContactItem::metaObject
; File f:\userdata\documents\githubrepo\project_4_qttest\_project\qtqq\qtqq\x64\debug\moc\moc_rootconcatitem.cpp
; Line 102
$LN5:
	mov	QWORD PTR [rsp+8], rcx
	sub	rsp, 56					; 00000038H
; Line 103
	mov	rax, QWORD PTR this$[rsp]
	add	rax, 8
	mov	rcx, rax
	call	??C?$QScopedPointer@VQObjectData@@U?$QScopedPointerDeleter@VQObjectData@@@@@@QEBAPEAVQObjectData@@XZ ; QScopedPointer<QObjectData,QScopedPointerDeleter<QObjectData> >::operator->
	cmp	QWORD PTR [rax+40], 0
	je	SHORT $LN3@metaObject
	mov	rax, QWORD PTR this$[rsp]
	add	rax, 8
	mov	rcx, rax
	call	??C?$QScopedPointer@VQObjectData@@U?$QScopedPointerDeleter@VQObjectData@@@@@@QEBAPEAVQObjectData@@XZ ; QScopedPointer<QObjectData,QScopedPointerDeleter<QObjectData> >::operator->
	mov	rcx, rax
	call	QWORD PTR __imp_?dynamicMetaObject@QObjectData@@QEBAPEAUQMetaObject@@XZ
	mov	QWORD PTR tv82[rsp], rax
	jmp	SHORT $LN4@metaObject
$LN3@metaObject:
	lea	rax, OFFSET FLAT:?staticMetaObject@RootContactItem@@2UQMetaObject@@B ; RootContactItem::staticMetaObject
	mov	QWORD PTR tv82[rsp], rax
$LN4@metaObject:
	mov	rax, QWORD PTR tv82[rsp]
; Line 104
	add	rsp, 56					; 00000038H
	ret	0
?metaObject@RootContactItem@@UEBAPEBUQMetaObject@@XZ ENDP ; RootContactItem::metaObject
_TEXT	ENDS
; Function compile flags: /Odtp
;	COMDAT ??C?$QScopedPointer@VQObjectData@@U?$QScopedPointerDeleter@VQObjectData@@@@@@QEBAPEAVQObjectData@@XZ
_TEXT	SEGMENT
this$ = 8
??C?$QScopedPointer@VQObjectData@@U?$QScopedPointerDeleter@VQObjectData@@@@@@QEBAPEAVQObjectData@@XZ PROC ; QScopedPointer<QObjectData,QScopedPointerDeleter<QObjectData> >::operator->, COMDAT
; File d:\qt\qt5.14.2\5.14.2\msvc2017_64\include\qtcore\qscopedpointer.h
; Line 117
	mov	QWORD PTR [rsp+8], rcx
; Line 118
	mov	rax, QWORD PTR this$[rsp]
	mov	rax, QWORD PTR [rax]
; Line 119
	ret	0
??C?$QScopedPointer@VQObjectData@@U?$QScopedPointerDeleter@VQObjectData@@@@@@QEBAPEAVQObjectData@@XZ ENDP ; QScopedPointer<QObjectData,QScopedPointerDeleter<QObjectData> >::operator->
_TEXT	ENDS
; Function compile flags: /Odtp
;	COMDAT ??0SuperData@QMetaObject@@QEAA@PEBU1@@Z
_TEXT	SEGMENT
this$ = 8
mo$ = 16
??0SuperData@QMetaObject@@QEAA@PEBU1@@Z PROC		; QMetaObject::SuperData::SuperData, COMDAT
; File d:\qt\qt5.14.2\5.14.2\msvc2017_64\include\qtcore\qobjectdefs.h
; Line 584
	mov	QWORD PTR [rsp+16], rdx
	mov	QWORD PTR [rsp+8], rcx
	mov	rax, QWORD PTR this$[rsp]
	mov	rcx, QWORD PTR mo$[rsp]
	mov	QWORD PTR [rax], rcx
	mov	rax, QWORD PTR this$[rsp]
	ret	0
??0SuperData@QMetaObject@@QEAA@PEBU1@@Z ENDP		; QMetaObject::SuperData::SuperData
_TEXT	ENDS
; Function compile flags: /Odtp
;	COMDAT ?__empty_global_delete@@YAXPEAX_K@Z
_TEXT	SEGMENT
__formal$ = 8
__formal$ = 16
?__empty_global_delete@@YAXPEAX_K@Z PROC		; __empty_global_delete, COMDAT
; File f:\userdata\documents\githubrepo\project_4_qttest\_project\qtqq\qtqq\x64\debug\moc\moc_rootconcatitem.cpp
; Line 141
	mov	QWORD PTR [rsp+16], rdx
	mov	QWORD PTR [rsp+8], rcx
	ret	0
?__empty_global_delete@@YAXPEAX_K@Z ENDP		; __empty_global_delete
_TEXT	ENDS
; Function compile flags: /Odtp
;	COMDAT ?__empty_global_delete@@YAXPEAX@Z
_TEXT	SEGMENT
__formal$ = 8
?__empty_global_delete@@YAXPEAX@Z PROC			; __empty_global_delete, COMDAT
; File f:\userdata\documents\githubrepo\project_4_qttest\_project\qtqq\qtqq\x64\debug\moc\moc_rootconcatitem.cpp
; Line 141
	mov	QWORD PTR [rsp+8], rcx
	ret	0
?__empty_global_delete@@YAXPEAX@Z ENDP			; __empty_global_delete
_TEXT	ENDS
END
