; Listing generated by Microsoft (R) Optimizing Compiler Version 19.16.27051.0 

include listing.inc

INCLUDELIB MSVCRTD
INCLUDELIB OLDNAMES

PUBLIC	?staticMetaObject@EmotionLabelItem@@2UQMetaObject@@B ; EmotionLabelItem::staticMetaObject
PUBLIC	?qt_static_metacall@EmotionLabelItem@@CAXPEAVQObject@@W4Call@QMetaObject@@HPEAPEAX@Z ; EmotionLabelItem::qt_static_metacall
EXTRN	?staticMetaObject@QClickLabel@@2UQMetaObject@@B:BYTE ; QClickLabel::staticMetaObject
CONST	SEGMENT
?qt_meta_stringdata_EmotionLabelItem@@3Uqt_meta_stringdata_EmotionLabelItem_t@@B DD 0ffffffffH ; qt_meta_stringdata_EmotionLabelItem
	DD	010H
	DD	00H
	ORG $+4
	DQ	0000000000000060H
	DD	0ffffffffH
	DD	0eH
	DD	00H
	ORG $+4
	DQ	0000000000000059H
	DD	0ffffffffH
	DD	00H
	DD	00H
	ORG $+4
	DQ	0000000000000050H
	DD	0ffffffffH
	DD	0aH
	DD	00H
	ORG $+4
	DQ	0000000000000039H
	DB	045H
	DB	06dH
	DB	06fH
	DB	074H
	DB	069H
	DB	06fH
	DB	06eH
	DB	04cH
	DB	061H
	DB	062H
	DB	065H
	DB	06cH
	DB	049H
	DB	074H
	DB	065H
	DB	06dH
	DB	00H
	DB	065H
	DB	06dH
	DB	06fH
	DB	074H
	DB	069H
	DB	06fH
	DB	06eH
	DB	043H
	DB	06cH
	DB	069H
	DB	063H
	DB	06bH
	DB	065H
	DB	064H
	DB	00H
	DB	00H
	DB	065H
	DB	06dH
	DB	06fH
	DB	074H
	DB	069H
	DB	06fH
	DB	06eH
	DB	04eH
	DB	075H
	DB	06dH
	DB	00H
	ORG $+4
?qt_meta_data_EmotionLabelItem@@3QBIB DD 08H		; qt_meta_data_EmotionLabelItem
	DD	00H
	DD	00H
	DD	00H
	DD	01H
	DD	0eH
	DD	00H
	DD	00H
	DD	00H
	DD	00H
	DD	00H
	DD	00H
	DD	00H
	DD	01H
	DD	01H
	DD	01H
	DD	013H
	DD	02H
	DD	06H
	DD	02bH
	DD	02H
	DD	03H
	DD	00H
	ORG $+4
$SG143168 DB	'd:\qt\qt5.14.2\5.14.2\msvc2017_64\include\qtcore\qmetaty'
	DB	'pe.h', 00H
	ORG $+3
$SG143169 DB	'qRegisterNormalizedMetaType was called with a not normal'
	DB	'ized type name, please call qRegisterMetaType instead.', 00H
	ORG $+1
$SG143170 DB	'qRegisterNormalizedMetaType', 00H
	ORG $+4
$SG143529 DB	'd:\qt\qt5.14.2\5.14.2\msvc2017_64\include\qtcore\qmetaty'
	DB	'pe.h', 00H
	ORG $+3
$SG143530 DB	'qRegisterNormalizedMetaType was called with a not normal'
	DB	'ized type name, please call qRegisterMetaType instead.', 00H
	ORG $+1
$SG143531 DB	'qRegisterNormalizedMetaType', 00H
	ORG $+4
$SG143890 DB	'd:\qt\qt5.14.2\5.14.2\msvc2017_64\include\qtcore\qmetaty'
	DB	'pe.h', 00H
	ORG $+3
$SG143891 DB	'qRegisterNormalizedMetaType was called with a not normal'
	DB	'ized type name, please call qRegisterMetaType instead.', 00H
	ORG $+1
$SG143892 DB	'qRegisterNormalizedMetaType', 00H
	ORG $+4
?staticMetaObject@EmotionLabelItem@@2UQMetaObject@@B DQ FLAT:?staticMetaObject@QClickLabel@@2UQMetaObject@@B ; EmotionLabelItem::staticMetaObject
	DQ	FLAT:?qt_meta_stringdata_EmotionLabelItem@@3Uqt_meta_stringdata_EmotionLabelItem_t@@B
	DQ	FLAT:?qt_meta_data_EmotionLabelItem@@3QBIB
	DQ	FLAT:?qt_static_metacall@EmotionLabelItem@@CAXPEAVQObject@@W4Call@QMetaObject@@HPEAPEAX@Z
	DQ	0000000000000000H
	DQ	0000000000000000H
CONST	ENDS
PUBLIC	?__empty_global_delete@@YAXPEAX@Z		; __empty_global_delete
PUBLIC	?__empty_global_delete@@YAXPEAX_K@Z		; __empty_global_delete
PUBLIC	??C?$QScopedPointer@VQObjectData@@U?$QScopedPointerDeleter@VQObjectData@@@@@@QEBAPEAVQObjectData@@XZ ; QScopedPointer<QObjectData,QScopedPointerDeleter<QObjectData> >::operator->
PUBLIC	?metaObject@EmotionLabelItem@@UEBAPEBUQMetaObject@@XZ ; EmotionLabelItem::metaObject
PUBLIC	?qt_metacast@EmotionLabelItem@@UEAAPEAXPEBD@Z	; EmotionLabelItem::qt_metacast
PUBLIC	?qt_metacall@EmotionLabelItem@@UEAAHW4Call@QMetaObject@@HPEAPEAX@Z ; EmotionLabelItem::qt_metacall
PUBLIC	?emotionClicked@EmotionLabelItem@@QEAAXH@Z	; EmotionLabelItem::emotionClicked
PUBLIC	??$addressof@H@std@@YAPEAHAEAH@Z		; std::addressof<int>
EXTRN	strcmp:PROC
EXTRN	__imp_?activate@QMetaObject@@SAXPEAVQObject@@PEBU1@HPEAPEAX@Z:PROC
EXTRN	__imp_?dynamicMetaObject@QObjectData@@QEBAPEAUQMetaObject@@XZ:PROC
EXTRN	?qt_metacast@QClickLabel@@UEAAPEAXPEBD@Z:PROC	; QClickLabel::qt_metacast
EXTRN	?qt_metacall@QClickLabel@@UEAAHW4Call@QMetaObject@@HPEAPEAX@Z:PROC ; QClickLabel::qt_metacall
pdata	SEGMENT
$pdata$?metaObject@EmotionLabelItem@@UEBAPEBUQMetaObject@@XZ DD imagerel $LN5
	DD	imagerel $LN5+88
	DD	imagerel $unwind$?metaObject@EmotionLabelItem@@UEBAPEBUQMetaObject@@XZ
$pdata$?qt_metacast@EmotionLabelItem@@UEAAPEAXPEBD@Z DD imagerel $LN5
	DD	imagerel $LN5+74
	DD	imagerel $unwind$?qt_metacast@EmotionLabelItem@@UEAAPEAXPEBD@Z
$pdata$?qt_metacall@EmotionLabelItem@@UEAAHW4Call@QMetaObject@@HPEAPEAX@Z DD imagerel $LN9
	DD	imagerel $LN9+171
	DD	imagerel $unwind$?qt_metacall@EmotionLabelItem@@UEAAHW4Call@QMetaObject@@HPEAPEAX@Z
$pdata$?qt_static_metacall@EmotionLabelItem@@CAXPEAVQObject@@W4Call@QMetaObject@@HPEAPEAX@Z DD imagerel $LN14
	DD	imagerel $LN14+266
	DD	imagerel $unwind$?qt_static_metacall@EmotionLabelItem@@CAXPEAVQObject@@W4Call@QMetaObject@@HPEAPEAX@Z
$pdata$?emotionClicked@EmotionLabelItem@@QEAAXH@Z DD imagerel $LN3
	DD	imagerel $LN3+68
	DD	imagerel $unwind$?emotionClicked@EmotionLabelItem@@QEAAXH@Z
pdata	ENDS
xdata	SEGMENT
$unwind$?metaObject@EmotionLabelItem@@UEBAPEBUQMetaObject@@XZ DD 010901H
	DD	06209H
$unwind$?qt_metacast@EmotionLabelItem@@UEAAPEAXPEBD@Z DD 010e01H
	DD	0420eH
$unwind$?qt_metacall@EmotionLabelItem@@UEAAHW4Call@QMetaObject@@HPEAPEAX@Z DD 011701H
	DD	04217H
$unwind$?qt_static_metacall@EmotionLabelItem@@CAXPEAVQObject@@W4Call@QMetaObject@@HPEAPEAX@Z DD 011701H
	DD	0a217H
$unwind$?emotionClicked@EmotionLabelItem@@QEAAXH@Z DD 010d01H
	DD	0620dH
xdata	ENDS
; Function compile flags: /Odtp
;	COMDAT ??$addressof@H@std@@YAPEAHAEAH@Z
_TEXT	SEGMENT
_Val$ = 8
??$addressof@H@std@@YAPEAHAEAH@Z PROC			; std::addressof<int>, COMDAT
; File d:\program files (x86)\microsoft visual studio\2017\community\vc\tools\msvc\14.16.27023\include\xstddef
; Line 329
	mov	QWORD PTR [rsp+8], rcx
; Line 330
	mov	rax, QWORD PTR _Val$[rsp]
; Line 331
	ret	0
??$addressof@H@std@@YAPEAHAEAH@Z ENDP			; std::addressof<int>
_TEXT	ENDS
; Function compile flags: /Odtp
_TEXT	SEGMENT
_a$ = 32
this$ = 64
_t1$ = 72
?emotionClicked@EmotionLabelItem@@QEAAXH@Z PROC		; EmotionLabelItem::emotionClicked
; File f:\userdata\documents\githubrepo\project_4_qttest\_project\qtqq\qtqq\x64\debug\moc\moc_emotionlabelitem.cpp
; Line 131
$LN3:
	mov	DWORD PTR [rsp+16], edx
	mov	QWORD PTR [rsp+8], rcx
	sub	rsp, 56					; 00000038H
; Line 132
	mov	QWORD PTR _a$[rsp], 0
	lea	rcx, QWORD PTR _t1$[rsp]
	call	??$addressof@H@std@@YAPEAHAEAH@Z	; std::addressof<int>
	mov	QWORD PTR _a$[rsp+8], rax
; Line 133
	lea	r9, QWORD PTR _a$[rsp]
	xor	r8d, r8d
	lea	rdx, OFFSET FLAT:?staticMetaObject@EmotionLabelItem@@2UQMetaObject@@B ; EmotionLabelItem::staticMetaObject
	mov	rcx, QWORD PTR this$[rsp]
	call	QWORD PTR __imp_?activate@QMetaObject@@SAXPEAVQObject@@PEBU1@HPEAPEAX@Z
; Line 134
	add	rsp, 56					; 00000038H
	ret	0
?emotionClicked@EmotionLabelItem@@QEAAXH@Z ENDP		; EmotionLabelItem::emotionClicked
_TEXT	ENDS
; Function compile flags: /Odtp
_TEXT	SEGMENT
tv91 = 32
tv69 = 36
_t$1 = 40
result$2 = 48
$T3 = 56
_o$ = 96
_c$ = 104
_id$ = 112
_a$ = 120
?qt_static_metacall@EmotionLabelItem@@CAXPEAVQObject@@W4Call@QMetaObject@@HPEAPEAX@Z PROC ; EmotionLabelItem::qt_static_metacall
; File f:\userdata\documents\githubrepo\project_4_qttest\_project\qtqq\qtqq\x64\debug\moc\moc_emotionlabelitem.cpp
; Line 69
$LN14:
	mov	QWORD PTR [rsp+32], r9
	mov	DWORD PTR [rsp+24], r8d
	mov	DWORD PTR [rsp+16], edx
	mov	QWORD PTR [rsp+8], rcx
	sub	rsp, 88					; 00000058H
; Line 70
	cmp	DWORD PTR _c$[rsp], 0
	jne	SHORT $LN4@qt_static_
; Line 71
	mov	rax, QWORD PTR _o$[rsp]
	mov	QWORD PTR _t$1[rsp], rax
; Line 73
	mov	eax, DWORD PTR _id$[rsp]
	mov	DWORD PTR tv69[rsp], eax
	cmp	DWORD PTR tv69[rsp], 0
	je	SHORT $LN6@qt_static_
	jmp	SHORT $LN7@qt_static_
$LN6@qt_static_:
; Line 74
	mov	eax, 8
	imul	rax, rax, 1
	mov	rcx, QWORD PTR _a$[rsp]
	mov	rax, QWORD PTR [rcx+rax]
	mov	edx, DWORD PTR [rax]
	mov	rcx, QWORD PTR _t$1[rsp]
	call	?emotionClicked@EmotionLabelItem@@QEAAXH@Z ; EmotionLabelItem::emotionClicked
$LN7@qt_static_:
; Line 77
	jmp	$LN5@qt_static_
$LN4@qt_static_:
	cmp	DWORD PTR _c$[rsp], 10
	jne	$LN8@qt_static_
; Line 78
	mov	eax, 8
	imul	rax, rax, 0
	mov	rcx, QWORD PTR _a$[rsp]
	mov	rax, QWORD PTR [rcx+rax]
	mov	QWORD PTR result$2[rsp], rax
; Line 81
	lea	rax, OFFSET FLAT:?emotionClicked@EmotionLabelItem@@QEAAXH@Z ; EmotionLabelItem::emotionClicked
	mov	QWORD PTR $T3[rsp], rax
	mov	DWORD PTR $T3[rsp+8], 0
	mov	eax, 8
	imul	rax, rax, 1
	mov	rcx, QWORD PTR _a$[rsp]
	mov	rax, QWORD PTR [rcx+rax]
	mov	rcx, QWORD PTR $T3[rsp]
	cmp	QWORD PTR [rax], rcx
	jne	SHORT $LN12@qt_static_
	mov	eax, 8
	imul	rax, rax, 1
	mov	rcx, QWORD PTR _a$[rsp]
	mov	rax, QWORD PTR [rcx+rax]
	cmp	QWORD PTR [rax], 0
	je	SHORT $LN11@qt_static_
	mov	eax, 8
	imul	rax, rax, 1
	mov	rcx, QWORD PTR _a$[rsp]
	mov	rax, QWORD PTR [rcx+rax]
	mov	ecx, DWORD PTR $T3[rsp+8]
	cmp	DWORD PTR [rax+8], ecx
	jne	SHORT $LN12@qt_static_
$LN11@qt_static_:
	mov	DWORD PTR tv91[rsp], 1
	jmp	SHORT $LN13@qt_static_
$LN12@qt_static_:
	mov	DWORD PTR tv91[rsp], 0
$LN13@qt_static_:
	cmp	DWORD PTR tv91[rsp], 0
	je	SHORT $LN9@qt_static_
; Line 82
	mov	rax, QWORD PTR result$2[rsp]
	mov	DWORD PTR [rax], 0
$LN9@qt_static_:
$LN8@qt_static_:
$LN5@qt_static_:
; Line 87
	add	rsp, 88					; 00000058H
	ret	0
?qt_static_metacall@EmotionLabelItem@@CAXPEAVQObject@@W4Call@QMetaObject@@HPEAPEAX@Z ENDP ; EmotionLabelItem::qt_static_metacall
_TEXT	ENDS
; Function compile flags: /Odtp
_TEXT	SEGMENT
this$ = 48
_c$ = 56
_id$ = 64
_a$ = 72
?qt_metacall@EmotionLabelItem@@UEAAHW4Call@QMetaObject@@HPEAPEAX@Z PROC ; EmotionLabelItem::qt_metacall
; File f:\userdata\documents\githubrepo\project_4_qttest\_project\qtqq\qtqq\x64\debug\moc\moc_emotionlabelitem.cpp
; Line 113
$LN9:
	mov	QWORD PTR [rsp+32], r9
	mov	DWORD PTR [rsp+24], r8d
	mov	DWORD PTR [rsp+16], edx
	mov	QWORD PTR [rsp+8], rcx
	sub	rsp, 40					; 00000028H
; Line 114
	mov	r9, QWORD PTR _a$[rsp]
	mov	r8d, DWORD PTR _id$[rsp]
	mov	edx, DWORD PTR _c$[rsp]
	mov	rcx, QWORD PTR this$[rsp]
	call	?qt_metacall@QClickLabel@@UEAAHW4Call@QMetaObject@@HPEAPEAX@Z ; QClickLabel::qt_metacall
	mov	DWORD PTR _id$[rsp], eax
; Line 115
	cmp	DWORD PTR _id$[rsp], 0
	jge	SHORT $LN2@qt_metacal
; Line 116
	mov	eax, DWORD PTR _id$[rsp]
	jmp	SHORT $LN1@qt_metacal
$LN2@qt_metacal:
; Line 117
	cmp	DWORD PTR _c$[rsp], 0
	jne	SHORT $LN3@qt_metacal
; Line 118
	cmp	DWORD PTR _id$[rsp], 1
	jge	SHORT $LN5@qt_metacal
; Line 119
	mov	r9, QWORD PTR _a$[rsp]
	mov	r8d, DWORD PTR _id$[rsp]
	mov	edx, DWORD PTR _c$[rsp]
	mov	rcx, QWORD PTR this$[rsp]
	call	?qt_static_metacall@EmotionLabelItem@@CAXPEAVQObject@@W4Call@QMetaObject@@HPEAPEAX@Z ; EmotionLabelItem::qt_static_metacall
$LN5@qt_metacal:
; Line 120
	mov	eax, DWORD PTR _id$[rsp]
	dec	eax
	mov	DWORD PTR _id$[rsp], eax
	jmp	SHORT $LN4@qt_metacal
$LN3@qt_metacal:
; Line 121
	cmp	DWORD PTR _c$[rsp], 12
	jne	SHORT $LN6@qt_metacal
; Line 122
	cmp	DWORD PTR _id$[rsp], 1
	jge	SHORT $LN7@qt_metacal
; Line 123
	mov	eax, 8
	imul	rax, rax, 0
	mov	rcx, QWORD PTR _a$[rsp]
	mov	rax, QWORD PTR [rcx+rax]
	mov	DWORD PTR [rax], -1
$LN7@qt_metacal:
; Line 124
	mov	eax, DWORD PTR _id$[rsp]
	dec	eax
	mov	DWORD PTR _id$[rsp], eax
$LN6@qt_metacal:
$LN4@qt_metacal:
; Line 126
	mov	eax, DWORD PTR _id$[rsp]
$LN1@qt_metacal:
; Line 127
	add	rsp, 40					; 00000028H
	ret	0
?qt_metacall@EmotionLabelItem@@UEAAHW4Call@QMetaObject@@HPEAPEAX@Z ENDP ; EmotionLabelItem::qt_metacall
_TEXT	ENDS
; Function compile flags: /Odtp
_TEXT	SEGMENT
this$ = 48
_clname$ = 56
?qt_metacast@EmotionLabelItem@@UEAAPEAXPEBD@Z PROC	; EmotionLabelItem::qt_metacast
; File f:\userdata\documents\githubrepo\project_4_qttest\_project\qtqq\qtqq\x64\debug\moc\moc_emotionlabelitem.cpp
; Line 105
$LN5:
	mov	QWORD PTR [rsp+16], rdx
	mov	QWORD PTR [rsp+8], rcx
	sub	rsp, 40					; 00000028H
; Line 106
	cmp	QWORD PTR _clname$[rsp], 0
	jne	SHORT $LN2@qt_metacas
	xor	eax, eax
	jmp	SHORT $LN1@qt_metacas
$LN2@qt_metacas:
; Line 107
	lea	rdx, OFFSET FLAT:?qt_meta_stringdata_EmotionLabelItem@@3Uqt_meta_stringdata_EmotionLabelItem_t@@B+96
	mov	rcx, QWORD PTR _clname$[rsp]
	call	strcmp
	test	eax, eax
	jne	SHORT $LN3@qt_metacas
; Line 108
	mov	rax, QWORD PTR this$[rsp]
	jmp	SHORT $LN1@qt_metacas
$LN3@qt_metacas:
; Line 109
	mov	rdx, QWORD PTR _clname$[rsp]
	mov	rcx, QWORD PTR this$[rsp]
	call	?qt_metacast@QClickLabel@@UEAAPEAXPEBD@Z ; QClickLabel::qt_metacast
$LN1@qt_metacas:
; Line 110
	add	rsp, 40					; 00000028H
	ret	0
?qt_metacast@EmotionLabelItem@@UEAAPEAXPEBD@Z ENDP	; EmotionLabelItem::qt_metacast
_TEXT	ENDS
; Function compile flags: /Odtp
_TEXT	SEGMENT
tv82 = 32
this$ = 64
?metaObject@EmotionLabelItem@@UEBAPEBUQMetaObject@@XZ PROC ; EmotionLabelItem::metaObject
; File f:\userdata\documents\githubrepo\project_4_qttest\_project\qtqq\qtqq\x64\debug\moc\moc_emotionlabelitem.cpp
; Line 100
$LN5:
	mov	QWORD PTR [rsp+8], rcx
	sub	rsp, 56					; 00000038H
; Line 101
	mov	rax, QWORD PTR this$[rsp]
	add	rax, 8
	mov	rcx, rax
	call	??C?$QScopedPointer@VQObjectData@@U?$QScopedPointerDeleter@VQObjectData@@@@@@QEBAPEAVQObjectData@@XZ ; QScopedPointer<QObjectData,QScopedPointerDeleter<QObjectData> >::operator->
	cmp	QWORD PTR [rax+40], 0
	je	SHORT $LN3@metaObject
	mov	rax, QWORD PTR this$[rsp]
	add	rax, 8
	mov	rcx, rax
	call	??C?$QScopedPointer@VQObjectData@@U?$QScopedPointerDeleter@VQObjectData@@@@@@QEBAPEAVQObjectData@@XZ ; QScopedPointer<QObjectData,QScopedPointerDeleter<QObjectData> >::operator->
	mov	rcx, rax
	call	QWORD PTR __imp_?dynamicMetaObject@QObjectData@@QEBAPEAUQMetaObject@@XZ
	mov	QWORD PTR tv82[rsp], rax
	jmp	SHORT $LN4@metaObject
$LN3@metaObject:
	lea	rax, OFFSET FLAT:?staticMetaObject@EmotionLabelItem@@2UQMetaObject@@B ; EmotionLabelItem::staticMetaObject
	mov	QWORD PTR tv82[rsp], rax
$LN4@metaObject:
	mov	rax, QWORD PTR tv82[rsp]
; Line 102
	add	rsp, 56					; 00000038H
	ret	0
?metaObject@EmotionLabelItem@@UEBAPEBUQMetaObject@@XZ ENDP ; EmotionLabelItem::metaObject
_TEXT	ENDS
; Function compile flags: /Odtp
;	COMDAT ??C?$QScopedPointer@VQObjectData@@U?$QScopedPointerDeleter@VQObjectData@@@@@@QEBAPEAVQObjectData@@XZ
_TEXT	SEGMENT
this$ = 8
??C?$QScopedPointer@VQObjectData@@U?$QScopedPointerDeleter@VQObjectData@@@@@@QEBAPEAVQObjectData@@XZ PROC ; QScopedPointer<QObjectData,QScopedPointerDeleter<QObjectData> >::operator->, COMDAT
; File d:\qt\qt5.14.2\5.14.2\msvc2017_64\include\qtcore\qscopedpointer.h
; Line 117
	mov	QWORD PTR [rsp+8], rcx
; Line 118
	mov	rax, QWORD PTR this$[rsp]
	mov	rax, QWORD PTR [rax]
; Line 119
	ret	0
??C?$QScopedPointer@VQObjectData@@U?$QScopedPointerDeleter@VQObjectData@@@@@@QEBAPEAVQObjectData@@XZ ENDP ; QScopedPointer<QObjectData,QScopedPointerDeleter<QObjectData> >::operator->
_TEXT	ENDS
; Function compile flags: /Odtp
;	COMDAT ?__empty_global_delete@@YAXPEAX_K@Z
_TEXT	SEGMENT
__formal$ = 8
__formal$ = 16
?__empty_global_delete@@YAXPEAX_K@Z PROC		; __empty_global_delete, COMDAT
; File f:\userdata\documents\githubrepo\project_4_qttest\_project\qtqq\qtqq\x64\debug\moc\moc_emotionlabelitem.cpp
; Line 137
	mov	QWORD PTR [rsp+16], rdx
	mov	QWORD PTR [rsp+8], rcx
	ret	0
?__empty_global_delete@@YAXPEAX_K@Z ENDP		; __empty_global_delete
_TEXT	ENDS
; Function compile flags: /Odtp
;	COMDAT ?__empty_global_delete@@YAXPEAX@Z
_TEXT	SEGMENT
__formal$ = 8
?__empty_global_delete@@YAXPEAX@Z PROC			; __empty_global_delete, COMDAT
; File f:\userdata\documents\githubrepo\project_4_qttest\_project\qtqq\qtqq\x64\debug\moc\moc_emotionlabelitem.cpp
; Line 137
	mov	QWORD PTR [rsp+8], rcx
	ret	0
?__empty_global_delete@@YAXPEAX@Z ENDP			; __empty_global_delete
_TEXT	ENDS
END
