; Listing generated by Microsoft (R) Optimizing Compiler Version 19.16.27051.0 

include listing.inc

INCLUDELIB MSVCRTD
INCLUDELIB OLDNAMES

PUBLIC	?staticMetaObject@SkinWindow@@2UQMetaObject@@B	; SkinWindow::staticMetaObject
PUBLIC	?qt_static_metacall@SkinWindow@@CAXPEAVQObject@@W4Call@QMetaObject@@HPEAPEAX@Z ; SkinWindow::qt_static_metacall
EXTRN	?staticMetaObject@BasicWindow@@2UQMetaObject@@B:BYTE ; BasicWindow::staticMetaObject
CONST	SEGMENT
$SG155750 DB	'd:\qt\qt5.14.2\5.14.2\msvc2017_64\include\qtcore\qmetaty'
	DB	'pe.h', 00H
	ORG $+3
$SG155751 DB	'qRegisterNormalizedMetaType was called with a not normal'
	DB	'ized type name, please call qRegisterMetaType instead.', 00H
	ORG $+1
$SG155752 DB	'qRegisterNormalizedMetaType', 00H
	ORG $+4
$SG156111 DB	'd:\qt\qt5.14.2\5.14.2\msvc2017_64\include\qtcore\qmetaty'
	DB	'pe.h', 00H
	ORG $+3
$SG156112 DB	'qRegisterNormalizedMetaType was called with a not normal'
	DB	'ized type name, please call qRegisterMetaType instead.', 00H
	ORG $+1
$SG156113 DB	'qRegisterNormalizedMetaType', 00H
	ORG $+4
?staticMetaObject@SkinWindow@@2UQMetaObject@@B DQ FLAT:?staticMetaObject@BasicWindow@@2UQMetaObject@@B ; SkinWindow::staticMetaObject
	DQ	FLAT:?qt_meta_stringdata_SkinWindow@@3Uqt_meta_stringdata_SkinWindow_t@@B
	DQ	FLAT:?qt_meta_data_SkinWindow@@3QBIB
	DQ	FLAT:?qt_static_metacall@SkinWindow@@CAXPEAVQObject@@W4Call@QMetaObject@@HPEAPEAX@Z
	DQ	0000000000000000H
	DQ	0000000000000000H
?qt_meta_stringdata_SkinWindow@@3Uqt_meta_stringdata_SkinWindow_t@@B DD 0ffffffffH ; qt_meta_stringdata_SkinWindow
	DD	0aH
	DD	00H
	ORG $+4
	DQ	0000000000000048H
	DD	0ffffffffH
	DD	0bH
	DD	00H
	ORG $+4
	DQ	000000000000003bH
	DD	0ffffffffH
	DD	00H
	DD	00H
	ORG $+4
	DQ	000000000000002fH
	DB	053H
	DB	06bH
	DB	069H
	DB	06eH
	DB	057H
	DB	069H
	DB	06eH
	DB	064H
	DB	06fH
	DB	077H
	DB	00H
	DB	06fH
	DB	06eH
	DB	053H
	DB	068H
	DB	06fH
	DB	077H
	DB	043H
	DB	06cH
	DB	06fH
	DB	073H
	DB	065H
	DB	00H
	DB	00H
?qt_meta_data_SkinWindow@@3QBIB DD 08H			; qt_meta_data_SkinWindow
	DD	00H
	DD	00H
	DD	00H
	DD	01H
	DD	0eH
	DD	00H
	DD	00H
	DD	00H
	DD	00H
	DD	00H
	DD	00H
	DD	00H
	DD	00H
	DD	01H
	DD	00H
	DD	013H
	DD	02H
	DD	0aH
	DD	02bH
	DD	00H
	ORG $+4
$SG152300 DB	'd:\qt\qt5.14.2\5.14.2\msvc2017_64\include\qtcore\qmetaty'
	DB	'pe.h', 00H
	ORG $+11
$SG152301 DB	'qRegisterNormalizedMetaType was called with a not normal'
	DB	'ized type name, please call qRegisterMetaType instead.', 00H
	ORG $+1
$SG152302 DB	'qRegisterNormalizedMetaType', 00H
	ORG $+4
$SG155389 DB	'd:\qt\qt5.14.2\5.14.2\msvc2017_64\include\qtcore\qmetaty'
	DB	'pe.h', 00H
	ORG $+3
$SG155390 DB	'qRegisterNormalizedMetaType was called with a not normal'
	DB	'ized type name, please call qRegisterMetaType instead.', 00H
	ORG $+1
$SG155391 DB	'qRegisterNormalizedMetaType', 00H
CONST	ENDS
PUBLIC	?__empty_global_delete@@YAXPEAX@Z		; __empty_global_delete
PUBLIC	?__empty_global_delete@@YAXPEAX_K@Z		; __empty_global_delete
PUBLIC	??C?$QScopedPointer@VQObjectData@@U?$QScopedPointerDeleter@VQObjectData@@@@@@QEBAPEAVQObjectData@@XZ ; QScopedPointer<QObjectData,QScopedPointerDeleter<QObjectData> >::operator->
PUBLIC	?metaObject@SkinWindow@@UEBAPEBUQMetaObject@@XZ	; SkinWindow::metaObject
PUBLIC	?qt_metacast@SkinWindow@@UEAAPEAXPEBD@Z		; SkinWindow::qt_metacast
PUBLIC	?qt_metacall@SkinWindow@@UEAAHW4Call@QMetaObject@@HPEAPEAX@Z ; SkinWindow::qt_metacall
EXTRN	strcmp:PROC
EXTRN	__imp_?dynamicMetaObject@QObjectData@@QEBAPEAUQMetaObject@@XZ:PROC
EXTRN	?qt_metacast@BasicWindow@@UEAAPEAXPEBD@Z:PROC	; BasicWindow::qt_metacast
EXTRN	?qt_metacall@BasicWindow@@UEAAHW4Call@QMetaObject@@HPEAPEAX@Z:PROC ; BasicWindow::qt_metacall
EXTRN	?onShowClose@SkinWindow@@QEAAXXZ:PROC		; SkinWindow::onShowClose
pdata	SEGMENT
$pdata$?metaObject@SkinWindow@@UEBAPEBUQMetaObject@@XZ DD imagerel $LN5
	DD	imagerel $LN5+88
	DD	imagerel $unwind$?metaObject@SkinWindow@@UEBAPEBUQMetaObject@@XZ
$pdata$?qt_metacast@SkinWindow@@UEAAPEAXPEBD@Z DD imagerel $LN5
	DD	imagerel $LN5+74
	DD	imagerel $unwind$?qt_metacast@SkinWindow@@UEAAPEAXPEBD@Z
$pdata$?qt_metacall@SkinWindow@@UEAAHW4Call@QMetaObject@@HPEAPEAX@Z DD imagerel $LN9
	DD	imagerel $LN9+171
	DD	imagerel $unwind$?qt_metacall@SkinWindow@@UEAAHW4Call@QMetaObject@@HPEAPEAX@Z
$pdata$?qt_static_metacall@SkinWindow@@CAXPEAVQObject@@W4Call@QMetaObject@@HPEAPEAX@Z DD imagerel $LN8
	DD	imagerel $LN8+72
	DD	imagerel $unwind$?qt_static_metacall@SkinWindow@@CAXPEAVQObject@@W4Call@QMetaObject@@HPEAPEAX@Z
pdata	ENDS
xdata	SEGMENT
$unwind$?metaObject@SkinWindow@@UEBAPEBUQMetaObject@@XZ DD 010901H
	DD	06209H
$unwind$?qt_metacast@SkinWindow@@UEAAPEAXPEBD@Z DD 010e01H
	DD	0420eH
$unwind$?qt_metacall@SkinWindow@@UEAAHW4Call@QMetaObject@@HPEAPEAX@Z DD 011701H
	DD	04217H
$unwind$?qt_static_metacall@SkinWindow@@CAXPEAVQObject@@W4Call@QMetaObject@@HPEAPEAX@Z DD 011701H
	DD	06217H
xdata	ENDS
; Function compile flags: /Odtp
_TEXT	SEGMENT
tv69 = 32
_t$1 = 40
_o$ = 64
_c$ = 72
_id$ = 80
_a$ = 88
?qt_static_metacall@SkinWindow@@CAXPEAVQObject@@W4Call@QMetaObject@@HPEAPEAX@Z PROC ; SkinWindow::qt_static_metacall
; File f:\userdata\documents\githubrepo\project_4_qttest\_project\qtqq\qtqq\x64\debug\moc\moc_skinwindow.cpp
; Line 67
$LN8:
	mov	QWORD PTR [rsp+32], r9
	mov	DWORD PTR [rsp+24], r8d
	mov	DWORD PTR [rsp+16], edx
	mov	QWORD PTR [rsp+8], rcx
	sub	rsp, 56					; 00000038H
; Line 68
	cmp	DWORD PTR _c$[rsp], 0
	jne	SHORT $LN4@qt_static_
; Line 69
	mov	rax, QWORD PTR _o$[rsp]
	mov	QWORD PTR _t$1[rsp], rax
; Line 71
	mov	eax, DWORD PTR _id$[rsp]
	mov	DWORD PTR tv69[rsp], eax
	cmp	DWORD PTR tv69[rsp], 0
	je	SHORT $LN5@qt_static_
	jmp	SHORT $LN6@qt_static_
$LN5@qt_static_:
; Line 72
	mov	rcx, QWORD PTR _t$1[rsp]
	call	?onShowClose@SkinWindow@@QEAAXXZ	; SkinWindow::onShowClose
$LN6@qt_static_:
$LN4@qt_static_:
; Line 77
	add	rsp, 56					; 00000038H
	ret	0
?qt_static_metacall@SkinWindow@@CAXPEAVQObject@@W4Call@QMetaObject@@HPEAPEAX@Z ENDP ; SkinWindow::qt_static_metacall
_TEXT	ENDS
; Function compile flags: /Odtp
_TEXT	SEGMENT
this$ = 48
_c$ = 56
_id$ = 64
_a$ = 72
?qt_metacall@SkinWindow@@UEAAHW4Call@QMetaObject@@HPEAPEAX@Z PROC ; SkinWindow::qt_metacall
; File f:\userdata\documents\githubrepo\project_4_qttest\_project\qtqq\qtqq\x64\debug\moc\moc_skinwindow.cpp
; Line 103
$LN9:
	mov	QWORD PTR [rsp+32], r9
	mov	DWORD PTR [rsp+24], r8d
	mov	DWORD PTR [rsp+16], edx
	mov	QWORD PTR [rsp+8], rcx
	sub	rsp, 40					; 00000028H
; Line 104
	mov	r9, QWORD PTR _a$[rsp]
	mov	r8d, DWORD PTR _id$[rsp]
	mov	edx, DWORD PTR _c$[rsp]
	mov	rcx, QWORD PTR this$[rsp]
	call	?qt_metacall@BasicWindow@@UEAAHW4Call@QMetaObject@@HPEAPEAX@Z ; BasicWindow::qt_metacall
	mov	DWORD PTR _id$[rsp], eax
; Line 105
	cmp	DWORD PTR _id$[rsp], 0
	jge	SHORT $LN2@qt_metacal
; Line 106
	mov	eax, DWORD PTR _id$[rsp]
	jmp	SHORT $LN1@qt_metacal
$LN2@qt_metacal:
; Line 107
	cmp	DWORD PTR _c$[rsp], 0
	jne	SHORT $LN3@qt_metacal
; Line 108
	cmp	DWORD PTR _id$[rsp], 1
	jge	SHORT $LN5@qt_metacal
; Line 109
	mov	r9, QWORD PTR _a$[rsp]
	mov	r8d, DWORD PTR _id$[rsp]
	mov	edx, DWORD PTR _c$[rsp]
	mov	rcx, QWORD PTR this$[rsp]
	call	?qt_static_metacall@SkinWindow@@CAXPEAVQObject@@W4Call@QMetaObject@@HPEAPEAX@Z ; SkinWindow::qt_static_metacall
$LN5@qt_metacal:
; Line 110
	mov	eax, DWORD PTR _id$[rsp]
	dec	eax
	mov	DWORD PTR _id$[rsp], eax
	jmp	SHORT $LN4@qt_metacal
$LN3@qt_metacal:
; Line 111
	cmp	DWORD PTR _c$[rsp], 12
	jne	SHORT $LN6@qt_metacal
; Line 112
	cmp	DWORD PTR _id$[rsp], 1
	jge	SHORT $LN7@qt_metacal
; Line 113
	mov	eax, 8
	imul	rax, rax, 0
	mov	rcx, QWORD PTR _a$[rsp]
	mov	rax, QWORD PTR [rcx+rax]
	mov	DWORD PTR [rax], -1
$LN7@qt_metacal:
; Line 114
	mov	eax, DWORD PTR _id$[rsp]
	dec	eax
	mov	DWORD PTR _id$[rsp], eax
$LN6@qt_metacal:
$LN4@qt_metacal:
; Line 116
	mov	eax, DWORD PTR _id$[rsp]
$LN1@qt_metacal:
; Line 117
	add	rsp, 40					; 00000028H
	ret	0
?qt_metacall@SkinWindow@@UEAAHW4Call@QMetaObject@@HPEAPEAX@Z ENDP ; SkinWindow::qt_metacall
_TEXT	ENDS
; Function compile flags: /Odtp
_TEXT	SEGMENT
this$ = 48
_clname$ = 56
?qt_metacast@SkinWindow@@UEAAPEAXPEBD@Z PROC		; SkinWindow::qt_metacast
; File f:\userdata\documents\githubrepo\project_4_qttest\_project\qtqq\qtqq\x64\debug\moc\moc_skinwindow.cpp
; Line 95
$LN5:
	mov	QWORD PTR [rsp+16], rdx
	mov	QWORD PTR [rsp+8], rcx
	sub	rsp, 40					; 00000028H
; Line 96
	cmp	QWORD PTR _clname$[rsp], 0
	jne	SHORT $LN2@qt_metacas
	xor	eax, eax
	jmp	SHORT $LN1@qt_metacas
$LN2@qt_metacas:
; Line 97
	lea	rdx, OFFSET FLAT:?qt_meta_stringdata_SkinWindow@@3Uqt_meta_stringdata_SkinWindow_t@@B+72
	mov	rcx, QWORD PTR _clname$[rsp]
	call	strcmp
	test	eax, eax
	jne	SHORT $LN3@qt_metacas
; Line 98
	mov	rax, QWORD PTR this$[rsp]
	jmp	SHORT $LN1@qt_metacas
$LN3@qt_metacas:
; Line 99
	mov	rdx, QWORD PTR _clname$[rsp]
	mov	rcx, QWORD PTR this$[rsp]
	call	?qt_metacast@BasicWindow@@UEAAPEAXPEBD@Z ; BasicWindow::qt_metacast
$LN1@qt_metacas:
; Line 100
	add	rsp, 40					; 00000028H
	ret	0
?qt_metacast@SkinWindow@@UEAAPEAXPEBD@Z ENDP		; SkinWindow::qt_metacast
_TEXT	ENDS
; Function compile flags: /Odtp
_TEXT	SEGMENT
tv82 = 32
this$ = 64
?metaObject@SkinWindow@@UEBAPEBUQMetaObject@@XZ PROC	; SkinWindow::metaObject
; File f:\userdata\documents\githubrepo\project_4_qttest\_project\qtqq\qtqq\x64\debug\moc\moc_skinwindow.cpp
; Line 90
$LN5:
	mov	QWORD PTR [rsp+8], rcx
	sub	rsp, 56					; 00000038H
; Line 91
	mov	rax, QWORD PTR this$[rsp]
	add	rax, 8
	mov	rcx, rax
	call	??C?$QScopedPointer@VQObjectData@@U?$QScopedPointerDeleter@VQObjectData@@@@@@QEBAPEAVQObjectData@@XZ ; QScopedPointer<QObjectData,QScopedPointerDeleter<QObjectData> >::operator->
	cmp	QWORD PTR [rax+40], 0
	je	SHORT $LN3@metaObject
	mov	rax, QWORD PTR this$[rsp]
	add	rax, 8
	mov	rcx, rax
	call	??C?$QScopedPointer@VQObjectData@@U?$QScopedPointerDeleter@VQObjectData@@@@@@QEBAPEAVQObjectData@@XZ ; QScopedPointer<QObjectData,QScopedPointerDeleter<QObjectData> >::operator->
	mov	rcx, rax
	call	QWORD PTR __imp_?dynamicMetaObject@QObjectData@@QEBAPEAUQMetaObject@@XZ
	mov	QWORD PTR tv82[rsp], rax
	jmp	SHORT $LN4@metaObject
$LN3@metaObject:
	lea	rax, OFFSET FLAT:?staticMetaObject@SkinWindow@@2UQMetaObject@@B ; SkinWindow::staticMetaObject
	mov	QWORD PTR tv82[rsp], rax
$LN4@metaObject:
	mov	rax, QWORD PTR tv82[rsp]
; Line 92
	add	rsp, 56					; 00000038H
	ret	0
?metaObject@SkinWindow@@UEBAPEBUQMetaObject@@XZ ENDP	; SkinWindow::metaObject
_TEXT	ENDS
; Function compile flags: /Odtp
;	COMDAT ??C?$QScopedPointer@VQObjectData@@U?$QScopedPointerDeleter@VQObjectData@@@@@@QEBAPEAVQObjectData@@XZ
_TEXT	SEGMENT
this$ = 8
??C?$QScopedPointer@VQObjectData@@U?$QScopedPointerDeleter@VQObjectData@@@@@@QEBAPEAVQObjectData@@XZ PROC ; QScopedPointer<QObjectData,QScopedPointerDeleter<QObjectData> >::operator->, COMDAT
; File d:\qt\qt5.14.2\5.14.2\msvc2017_64\include\qtcore\qscopedpointer.h
; Line 117
	mov	QWORD PTR [rsp+8], rcx
; Line 118
	mov	rax, QWORD PTR this$[rsp]
	mov	rax, QWORD PTR [rax]
; Line 119
	ret	0
??C?$QScopedPointer@VQObjectData@@U?$QScopedPointerDeleter@VQObjectData@@@@@@QEBAPEAVQObjectData@@XZ ENDP ; QScopedPointer<QObjectData,QScopedPointerDeleter<QObjectData> >::operator->
_TEXT	ENDS
; Function compile flags: /Odtp
;	COMDAT ?__empty_global_delete@@YAXPEAX_K@Z
_TEXT	SEGMENT
__formal$ = 8
__formal$ = 16
?__empty_global_delete@@YAXPEAX_K@Z PROC		; __empty_global_delete, COMDAT
; File f:\userdata\documents\githubrepo\project_4_qttest\_project\qtqq\qtqq\x64\debug\moc\moc_skinwindow.cpp
; Line 120
	mov	QWORD PTR [rsp+16], rdx
	mov	QWORD PTR [rsp+8], rcx
	ret	0
?__empty_global_delete@@YAXPEAX_K@Z ENDP		; __empty_global_delete
_TEXT	ENDS
; Function compile flags: /Odtp
;	COMDAT ?__empty_global_delete@@YAXPEAX@Z
_TEXT	SEGMENT
__formal$ = 8
?__empty_global_delete@@YAXPEAX@Z PROC			; __empty_global_delete, COMDAT
; File f:\userdata\documents\githubrepo\project_4_qttest\_project\qtqq\qtqq\x64\debug\moc\moc_skinwindow.cpp
; Line 120
	mov	QWORD PTR [rsp+8], rcx
	ret	0
?__empty_global_delete@@YAXPEAX@Z ENDP			; __empty_global_delete
_TEXT	ENDS
END
